SF:/home/ggtest/Work/Claude/MDViewer/.claude/worktrees/mdviewer-android/crates/mdviewer-core/src/anchor.rs
FN:76,_RNCNvNtCsiFtzeUpmjej_13mdviewer_core6anchor14resolve_anchor0B5_
FN:103,_RNCNvNtCsiFtzeUpmjej_13mdviewer_core6anchor14resolve_anchors0_0B5_
FN:95,_RNCNvNtCsiFtzeUpmjej_13mdviewer_core6anchor14resolve_anchors_0B5_
FN:185,_RNCNvNtCsiFtzeUpmjej_13mdviewer_core6anchor29resolve_anchor_with_threshold0B5_
FN:201,_RNvNtCsiFtzeUpmjej_13mdviewer_core6anchor10locate_end
FN:56,_RNvNtCsiFtzeUpmjej_13mdviewer_core6anchor14resolve_anchor
FN:233,_RNvNtCsiFtzeUpmjej_13mdviewer_core6anchor19matching_prefix_len
FN:218,_RNvNtCsiFtzeUpmjej_13mdviewer_core6anchor19matching_suffix_len
FN:244,_RNvNtCsiFtzeUpmjej_13mdviewer_core6anchor21is_char_boundary_pair
FN:121,_RNvNtCsiFtzeUpmjej_13mdviewer_core6anchor29resolve_anchor_with_threshold
FN:76,_RNCNvNtCsekErrGBc1MS_13mdviewer_core6anchor14resolve_anchor0B5_
FN:103,_RNCNvNtCsekErrGBc1MS_13mdviewer_core6anchor14resolve_anchors0_0B5_
FN:95,_RNCNvNtCsekErrGBc1MS_13mdviewer_core6anchor14resolve_anchors_0B5_
FN:185,_RNCNvNtCsekErrGBc1MS_13mdviewer_core6anchor29resolve_anchor_with_threshold0B5_
FN:201,_RNvNtCsekErrGBc1MS_13mdviewer_core6anchor10locate_end
FN:56,_RNvNtCsekErrGBc1MS_13mdviewer_core6anchor14resolve_anchor
FN:233,_RNvNtCsekErrGBc1MS_13mdviewer_core6anchor19matching_prefix_len
FN:218,_RNvNtCsekErrGBc1MS_13mdviewer_core6anchor19matching_suffix_len
FN:244,_RNvNtCsekErrGBc1MS_13mdviewer_core6anchor21is_char_boundary_pair
FN:121,_RNvNtCsekErrGBc1MS_13mdviewer_core6anchor29resolve_anchor_with_threshold
FN:76,_RNCNvNtCs3ikr03e7esg_13mdviewer_core6anchor14resolve_anchor0B5_
FN:103,_RNCNvNtCs3ikr03e7esg_13mdviewer_core6anchor14resolve_anchors0_0B5_
FN:95,_RNCNvNtCs3ikr03e7esg_13mdviewer_core6anchor14resolve_anchors_0B5_
FN:185,_RNCNvNtCs3ikr03e7esg_13mdviewer_core6anchor29resolve_anchor_with_threshold0B5_
FN:201,_RNvNtCs3ikr03e7esg_13mdviewer_core6anchor10locate_end
FN:56,_RNvNtCs3ikr03e7esg_13mdviewer_core6anchor14resolve_anchor
FN:233,_RNvNtCs3ikr03e7esg_13mdviewer_core6anchor19matching_prefix_len
FN:218,_RNvNtCs3ikr03e7esg_13mdviewer_core6anchor19matching_suffix_len
FN:244,_RNvNtCs3ikr03e7esg_13mdviewer_core6anchor21is_char_boundary_pair
FN:121,_RNvNtCs3ikr03e7esg_13mdviewer_core6anchor29resolve_anchor_with_threshold
FNDA:20,_RNCNvNtCsiFtzeUpmjej_13mdviewer_core6anchor14resolve_anchor0B5_
FNDA:5,_RNCNvNtCsiFtzeUpmjej_13mdviewer_core6anchor14resolve_anchors0_0B5_
FNDA:9,_RNCNvNtCsiFtzeUpmjej_13mdviewer_core6anchor14resolve_anchors_0B5_
FNDA:4,_RNCNvNtCsiFtzeUpmjej_13mdviewer_core6anchor29resolve_anchor_with_threshold0B5_
FNDA:5,_RNvNtCsiFtzeUpmjej_13mdviewer_core6anchor10locate_end
FNDA:25,_RNvNtCsiFtzeUpmjej_13mdviewer_core6anchor14resolve_anchor
FNDA:14,_RNvNtCsiFtzeUpmjej_13mdviewer_core6anchor19matching_prefix_len
FNDA:14,_RNvNtCsiFtzeUpmjej_13mdviewer_core6anchor19matching_suffix_len
FNDA:15,_RNvNtCsiFtzeUpmjej_13mdviewer_core6anchor21is_char_boundary_pair
FNDA:17,_RNvNtCsiFtzeUpmjej_13mdviewer_core6anchor29resolve_anchor_with_threshold
FNDA:0,_RNCNvNtCsekErrGBc1MS_13mdviewer_core6anchor14resolve_anchor0B5_
FNDA:0,_RNCNvNtCsekErrGBc1MS_13mdviewer_core6anchor14resolve_anchors0_0B5_
FNDA:0,_RNCNvNtCsekErrGBc1MS_13mdviewer_core6anchor14resolve_anchors_0B5_
FNDA:0,_RNCNvNtCsekErrGBc1MS_13mdviewer_core6anchor29resolve_anchor_with_threshold0B5_
FNDA:0,_RNvNtCsekErrGBc1MS_13mdviewer_core6anchor10locate_end
FNDA:0,_RNvNtCsekErrGBc1MS_13mdviewer_core6anchor14resolve_anchor
FNDA:0,_RNvNtCsekErrGBc1MS_13mdviewer_core6anchor19matching_prefix_len
FNDA:0,_RNvNtCsekErrGBc1MS_13mdviewer_core6anchor19matching_suffix_len
FNDA:0,_RNvNtCsekErrGBc1MS_13mdviewer_core6anchor21is_char_boundary_pair
FNDA:0,_RNvNtCsekErrGBc1MS_13mdviewer_core6anchor29resolve_anchor_with_threshold
FNDA:0,_RNCNvNtCs3ikr03e7esg_13mdviewer_core6anchor14resolve_anchor0B5_
FNDA:0,_RNCNvNtCs3ikr03e7esg_13mdviewer_core6anchor14resolve_anchors0_0B5_
FNDA:0,_RNCNvNtCs3ikr03e7esg_13mdviewer_core6anchor14resolve_anchors_0B5_
FNDA:0,_RNCNvNtCs3ikr03e7esg_13mdviewer_core6anchor29resolve_anchor_with_threshold0B5_
FNDA:0,_RNvNtCs3ikr03e7esg_13mdviewer_core6anchor10locate_end
FNDA:0,_RNvNtCs3ikr03e7esg_13mdviewer_core6anchor14resolve_anchor
FNDA:0,_RNvNtCs3ikr03e7esg_13mdviewer_core6anchor19matching_prefix_len
FNDA:0,_RNvNtCs3ikr03e7esg_13mdviewer_core6anchor19matching_suffix_len
FNDA:0,_RNvNtCs3ikr03e7esg_13mdviewer_core6anchor21is_char_boundary_pair
FNDA:0,_RNvNtCs3ikr03e7esg_13mdviewer_core6anchor29resolve_anchor_with_threshold
FNF:10
FNH:10
DA:56,25
DA:57,25
DA:58,1
DA:59,24
DA:62,24
DA:63,24
DA:64,44
DA:65,20
DA:66,20
DA:67,20
DA:73,20
DA:74,20
DA:75,20
DA:76,20
DA:77,20
DA:78,20
DA:80,24
DA:81,9
DA:82,15
DA:85,15
DA:86,11
DA:87,11
DA:88,0
DA:89,11
DA:90,11
DA:91,4
DA:95,9
DA:96,9
DA:97,9
DA:98,9
DA:99,9
DA:100,9
DA:101,9
DA:103,5
DA:104,4
DA:105,4
DA:106,4
DA:107,0
DA:108,0
DA:109,0
DA:110,25
DA:121,17
DA:122,17
DA:123,17
DA:124,17
DA:125,17
DA:126,17
DA:127,1
DA:128,16
DA:132,16
DA:133,8
DA:134,8
DA:137,8
DA:139,8
DA:140,8
DA:141,8
DA:146,8
DA:150,8
DA:151,8
DA:152,3
DA:157,5
DA:158,0
DA:159,0
DA:167,5
DA:168,5
DA:172,5
DA:173,0
DA:174,5
DA:178,5
DA:179,5
DA:180,5
DA:183,5
DA:184,5
DA:185,5
DA:186,5
DA:187,5
DA:188,1
DA:189,4
DA:191,4
DA:192,17
DA:201,5
DA:202,5
DA:203,1
DA:204,4
DA:206,4
DA:207,4
DA:208,4
DA:209,4
DA:210,3
DA:211,3
DA:212,3
DA:213,0
DA:214,1
DA:215,1
DA:216,5
DA:218,14
DA:220,14
DA:221,17
DA:222,8
DA:223,8
DA:224,8
DA:226,5
DA:227,3
DA:228,3
DA:230,9
DA:231,14
DA:233,14
DA:234,14
DA:235,33
DA:236,27
DA:237,8
DA:238,19
DA:239,19
DA:241,6
DA:242,14
DA:244,15
DA:245,15
DA:246,15
BRF:0
BRH:0
LF:122
LH:114
end_of_record
SF:/home/ggtest/Work/Claude/MDViewer/.claude/worktrees/mdviewer-android/crates/mdviewer-core/src/auto_merge.rs
FN:52,_RNvNtNtCs3ikr03e7esg_13mdviewer_core10auto_merge5testss_28round_trip_preserves_variant
FN:35,_RNvNtNtCs3ikr03e7esg_13mdviewer_core10auto_merge5testss_32variants_serialize_as_snake_case
FN:42,_RNvNtNtCs3ikr03e7esg_13mdviewer_core10auto_merge5testss_36variants_deserialize_from_snake_case
FNDA:1,_RNvNtNtCs3ikr03e7esg_13mdviewer_core10auto_merge5testss_28round_trip_preserves_variant
FNDA:1,_RNvNtNtCs3ikr03e7esg_13mdviewer_core10auto_merge5testss_32variants_serialize_as_snake_case
FNDA:1,_RNvNtNtCs3ikr03e7esg_13mdviewer_core10auto_merge5testss_36variants_deserialize_from_snake_case
FNF:3
FNH:3
DA:35,1
DA:36,1
DA:37,1
DA:38,1
DA:39,1
DA:42,1
DA:43,1
DA:44,1
DA:45,1
DA:46,1
DA:47,1
DA:48,1
DA:49,1
DA:52,1
DA:53,3
DA:54,1
DA:55,1
DA:56,1
DA:57,1
DA:58,3
DA:59,3
DA:60,3
DA:62,1
BRF:0
BRH:0
LF:23
LH:23
end_of_record
SF:/home/ggtest/Work/Claude/MDViewer/.claude/worktrees/mdviewer-android/crates/mdviewer-core/src/comments.rs
FN:152,_RNvMs_NtCsiFtzeUpmjej_13mdviewer_core8commentsNtB4_13CommentsStore10get_thread
FN:182,_RNvMs_NtCsiFtzeUpmjej_13mdviewer_core8commentsNtB4_13CommentsStore10post_reply
FN:223,_RNvMs_NtCsiFtzeUpmjej_13mdviewer_core8commentsNtB4_13CommentsStore11replace_all
FN:128,_RNvMs_NtCsiFtzeUpmjej_13mdviewer_core8commentsNtB4_13CommentsStore12from_threads
FN:148,_RNvMs_NtCsiFtzeUpmjej_13mdviewer_core8commentsNtB4_13CommentsStore12list_threads
FN:159,_RNvMs_NtCsiFtzeUpmjej_13mdviewer_core8commentsNtB4_13CommentsStore13create_thread
FN:204,_RNvMs_NtCsiFtzeUpmjej_13mdviewer_core8commentsNtB4_13CommentsStore14resolve_thread
FN:120,_RNvMs_NtCsiFtzeUpmjej_13mdviewer_core8commentsNtB4_13CommentsStore3new
FN:143,_RNvMs_NtCsiFtzeUpmjej_13mdviewer_core8commentsNtB4_13CommentsStore4emit
FN:137,_RNvMs_NtCsiFtzeUpmjej_13mdviewer_core8commentsNtB4_13CommentsStore9subscribe
FN:229,_RNvNtCsiFtzeUpmjej_13mdviewer_core8comments11now_rfc3339
FN:354,_RNvNtCsiFtzeUpmjej_13mdviewer_core8comments12merge_stores
FN:392,_RNvNtCsiFtzeUpmjej_13mdviewer_core8comments12union_thread
FN:252,_RNvNtCsiFtzeUpmjej_13mdviewer_core8comments15civil_from_days
FN:372,_RNvNtCsiFtzeUpmjej_13mdviewer_core8comments16post_merge_union
FN:303,_RNvNtCsiFtzeUpmjej_13mdviewer_core8comments18store_to_automerge
FN:316,_RNvNtCsiFtzeUpmjej_13mdviewer_core8comments20store_from_automerge
FN:271,_RNvNtCsiFtzeUpmjej_13mdviewer_core8comments6new_id
FN:355,_RNvNvNtCsiFtzeUpmjej_13mdviewer_core8comments12merge_stores9try_merge
FN:114,_RNvXNtCsiFtzeUpmjej_13mdviewer_core8commentsNtB2_13CommentsStoreNtNtCsgEmfK2I1SDS_4core7default7Default7default
FN:378,_RNCNCNvNtCsiFtzeUpmjej_13mdviewer_core8comments16post_merge_union00B7_
FN:153,_RNCNvMs_NtCsiFtzeUpmjej_13mdviewer_core8commentsNtB6_13CommentsStore10get_thread0B8_
FN:190,_RNCNvMs_NtCsiFtzeUpmjej_13mdviewer_core8commentsNtB6_13CommentsStore10post_reply0B8_
FN:212,_RNCNvMs_NtCsiFtzeUpmjej_13mdviewer_core8commentsNtB6_13CommentsStore14resolve_thread0B8_
FN:145,_RNCNvMs_NtCsiFtzeUpmjej_13mdviewer_core8commentsNtB6_13CommentsStore4emit0B8_
FN:365,_RNCNvNtCsiFtzeUpmjej_13mdviewer_core8comments12merge_stores0B5_
FN:403,_RNCNvNtCsiFtzeUpmjej_13mdviewer_core8comments12union_thread0B5_
FN:377,_RNCNvNtCsiFtzeUpmjej_13mdviewer_core8comments16post_merge_union0B5_
FN:308,_RNCNvNtCsiFtzeUpmjej_13mdviewer_core8comments18store_to_automerge0B5_
FN:322,_RNCNvNtCsiFtzeUpmjej_13mdviewer_core8comments20store_from_automerge0B5_
FN:326,_RNCNvNtCsiFtzeUpmjej_13mdviewer_core8comments20store_from_automerges_0B5_
FN:378,_RNCNCNvNtCsekErrGBc1MS_13mdviewer_core8comments16post_merge_union00B7_
FN:153,_RNCNvMs_NtCsekErrGBc1MS_13mdviewer_core8commentsNtB6_13CommentsStore10get_thread0B8_
FN:190,_RNCNvMs_NtCsekErrGBc1MS_13mdviewer_core8commentsNtB6_13CommentsStore10post_reply0B8_
FN:212,_RNCNvMs_NtCsekErrGBc1MS_13mdviewer_core8commentsNtB6_13CommentsStore14resolve_thread0B8_
FN:145,_RNCNvMs_NtCsekErrGBc1MS_13mdviewer_core8commentsNtB6_13CommentsStore4emit0B8_
FN:365,_RNCNvNtCsekErrGBc1MS_13mdviewer_core8comments12merge_stores0B5_
FN:403,_RNCNvNtCsekErrGBc1MS_13mdviewer_core8comments12union_thread0B5_
FN:377,_RNCNvNtCsekErrGBc1MS_13mdviewer_core8comments16post_merge_union0B5_
FN:308,_RNCNvNtCsekErrGBc1MS_13mdviewer_core8comments18store_to_automerge0B5_
FN:322,_RNCNvNtCsekErrGBc1MS_13mdviewer_core8comments20store_from_automerge0B5_
FN:326,_RNCNvNtCsekErrGBc1MS_13mdviewer_core8comments20store_from_automerges_0B5_
FN:152,_RNvMs_NtCsekErrGBc1MS_13mdviewer_core8commentsNtB4_13CommentsStore10get_thread
FN:182,_RNvMs_NtCsekErrGBc1MS_13mdviewer_core8commentsNtB4_13CommentsStore10post_reply
FN:223,_RNvMs_NtCsekErrGBc1MS_13mdviewer_core8commentsNtB4_13CommentsStore11replace_all
FN:128,_RNvMs_NtCsekErrGBc1MS_13mdviewer_core8commentsNtB4_13CommentsStore12from_threads
FN:148,_RNvMs_NtCsekErrGBc1MS_13mdviewer_core8commentsNtB4_13CommentsStore12list_threads
FN:159,_RNvMs_NtCsekErrGBc1MS_13mdviewer_core8commentsNtB4_13CommentsStore13create_thread
FN:204,_RNvMs_NtCsekErrGBc1MS_13mdviewer_core8commentsNtB4_13CommentsStore14resolve_thread
FN:120,_RNvMs_NtCsekErrGBc1MS_13mdviewer_core8commentsNtB4_13CommentsStore3new
FN:143,_RNvMs_NtCsekErrGBc1MS_13mdviewer_core8commentsNtB4_13CommentsStore4emit
FN:137,_RNvMs_NtCsekErrGBc1MS_13mdviewer_core8commentsNtB4_13CommentsStore9subscribe
FN:229,_RNvNtCsekErrGBc1MS_13mdviewer_core8comments11now_rfc3339
FN:354,_RNvNtCsekErrGBc1MS_13mdviewer_core8comments12merge_stores
FN:392,_RNvNtCsekErrGBc1MS_13mdviewer_core8comments12union_thread
FN:252,_RNvNtCsekErrGBc1MS_13mdviewer_core8comments15civil_from_days
FN:372,_RNvNtCsekErrGBc1MS_13mdviewer_core8comments16post_merge_union
FN:303,_RNvNtCsekErrGBc1MS_13mdviewer_core8comments18store_to_automerge
FN:316,_RNvNtCsekErrGBc1MS_13mdviewer_core8comments20store_from_automerge
FN:271,_RNvNtCsekErrGBc1MS_13mdviewer_core8comments6new_id
FN:355,_RNvNvNtCsekErrGBc1MS_13mdviewer_core8comments12merge_stores9try_merge
FN:114,_RNvXNtCsekErrGBc1MS_13mdviewer_core8commentsNtB2_13CommentsStoreNtNtCsgEmfK2I1SDS_4core7default7Default7default
FN:378,_RNCNCNvNtCs3ikr03e7esg_13mdviewer_core8comments16post_merge_union00B7_
FN:153,_RNCNvMs_NtCs3ikr03e7esg_13mdviewer_core8commentsNtB6_13CommentsStore10get_thread0B8_
FN:190,_RNCNvMs_NtCs3ikr03e7esg_13mdviewer_core8commentsNtB6_13CommentsStore10post_reply0B8_
FN:212,_RNCNvMs_NtCs3ikr03e7esg_13mdviewer_core8commentsNtB6_13CommentsStore14resolve_thread0B8_
FN:145,_RNCNvMs_NtCs3ikr03e7esg_13mdviewer_core8commentsNtB6_13CommentsStore4emit0B8_
FN:365,_RNCNvNtCs3ikr03e7esg_13mdviewer_core8comments12merge_stores0B5_
FN:403,_RNCNvNtCs3ikr03e7esg_13mdviewer_core8comments12union_thread0B5_
FN:377,_RNCNvNtCs3ikr03e7esg_13mdviewer_core8comments16post_merge_union0B5_
FN:152,_RNvMs_NtCs3ikr03e7esg_13mdviewer_core8commentsNtB4_13CommentsStore10get_thread
FN:182,_RNvMs_NtCs3ikr03e7esg_13mdviewer_core8commentsNtB4_13CommentsStore10post_reply
FN:223,_RNvMs_NtCs3ikr03e7esg_13mdviewer_core8commentsNtB4_13CommentsStore11replace_all
FN:159,_RNvMs_NtCs3ikr03e7esg_13mdviewer_core8commentsNtB4_13CommentsStore13create_thread
FN:204,_RNvMs_NtCs3ikr03e7esg_13mdviewer_core8commentsNtB4_13CommentsStore14resolve_thread
FN:143,_RNvMs_NtCs3ikr03e7esg_13mdviewer_core8commentsNtB4_13CommentsStore4emit
FN:137,_RNvMs_NtCs3ikr03e7esg_13mdviewer_core8commentsNtB4_13CommentsStore9subscribe
FN:229,_RNvNtCs3ikr03e7esg_13mdviewer_core8comments11now_rfc3339
FN:354,_RNvNtCs3ikr03e7esg_13mdviewer_core8comments12merge_stores
FN:392,_RNvNtCs3ikr03e7esg_13mdviewer_core8comments12union_thread
FN:252,_RNvNtCs3ikr03e7esg_13mdviewer_core8comments15civil_from_days
FN:372,_RNvNtCs3ikr03e7esg_13mdviewer_core8comments16post_merge_union
FN:271,_RNvNtCs3ikr03e7esg_13mdviewer_core8comments6new_id
FN:355,_RNvNvNtCs3ikr03e7esg_13mdviewer_core8comments12merge_stores9try_merge
FN:114,_RNvXNtCs3ikr03e7esg_13mdviewer_core8commentsNtB2_13CommentsStoreNtNtCsgEmfK2I1SDS_4core7default7Default7default
FN:128,_RNvMs_NtCs3ikr03e7esg_13mdviewer_core8commentsNtB4_13CommentsStore12from_threads
FN:148,_RNvMs_NtCs3ikr03e7esg_13mdviewer_core8commentsNtB4_13CommentsStore12list_threads
FN:120,_RNvMs_NtCs3ikr03e7esg_13mdviewer_core8commentsNtB4_13CommentsStore3new
FN:303,_RNvNtCs3ikr03e7esg_13mdviewer_core8comments18store_to_automerge
FN:316,_RNvNtCs3ikr03e7esg_13mdviewer_core8comments20store_from_automerge
FN:308,_RNCNvNtCs3ikr03e7esg_13mdviewer_core8comments18store_to_automerge0B5_
FN:322,_RNCNvNtCs3ikr03e7esg_13mdviewer_core8comments20store_from_automerge0B5_
FN:326,_RNCNvNtCs3ikr03e7esg_13mdviewer_core8comments20store_from_automerges_0B5_
FNDA:3,_RNvMs_NtCsiFtzeUpmjej_13mdviewer_core8commentsNtB4_13CommentsStore10get_thread
FNDA:3,_RNvMs_NtCsiFtzeUpmjej_13mdviewer_core8commentsNtB4_13CommentsStore10post_reply
FNDA:4,_RNvMs_NtCsiFtzeUpmjej_13mdviewer_core8commentsNtB4_13CommentsStore11replace_all
FNDA:22,_RNvMs_NtCsiFtzeUpmjej_13mdviewer_core8commentsNtB4_13CommentsStore12from_threads
FNDA:126,_RNvMs_NtCsiFtzeUpmjej_13mdviewer_core8commentsNtB4_13CommentsStore12list_threads
FNDA:29,_RNvMs_NtCsiFtzeUpmjej_13mdviewer_core8commentsNtB4_13CommentsStore13create_thread
FNDA:3,_RNvMs_NtCsiFtzeUpmjej_13mdviewer_core8commentsNtB4_13CommentsStore14resolve_thread
FNDA:61,_RNvMs_NtCsiFtzeUpmjej_13mdviewer_core8commentsNtB4_13CommentsStore3new
FNDA:37,_RNvMs_NtCsiFtzeUpmjej_13mdviewer_core8commentsNtB4_13CommentsStore4emit
FNDA:6,_RNvMs_NtCsiFtzeUpmjej_13mdviewer_core8commentsNtB4_13CommentsStore9subscribe
FNDA:33,_RNvNtCsiFtzeUpmjej_13mdviewer_core8comments11now_rfc3339
FNDA:6,_RNvNtCsiFtzeUpmjej_13mdviewer_core8comments12merge_stores
FNDA:0,_RNvNtCsiFtzeUpmjej_13mdviewer_core8comments12union_thread
FNDA:33,_RNvNtCsiFtzeUpmjej_13mdviewer_core8comments15civil_from_days
FNDA:6,_RNvNtCsiFtzeUpmjej_13mdviewer_core8comments16post_merge_union
FNDA:21,_RNvNtCsiFtzeUpmjej_13mdviewer_core8comments18store_to_automerge
FNDA:13,_RNvNtCsiFtzeUpmjej_13mdviewer_core8comments20store_from_automerge
FNDA:60,_RNvNtCsiFtzeUpmjej_13mdviewer_core8comments6new_id
FNDA:6,_RNvNvNtCsiFtzeUpmjej_13mdviewer_core8comments12merge_stores9try_merge
FNDA:1,_RNvXNtCsiFtzeUpmjej_13mdviewer_core8commentsNtB2_13CommentsStoreNtNtCsgEmfK2I1SDS_4core7default7Default7default
FNDA:25,_RNCNCNvNtCsiFtzeUpmjej_13mdviewer_core8comments16post_merge_union00B7_
FNDA:2,_RNCNvMs_NtCsiFtzeUpmjej_13mdviewer_core8commentsNtB6_13CommentsStore10get_thread0B8_
FNDA:2,_RNCNvMs_NtCsiFtzeUpmjej_13mdviewer_core8commentsNtB6_13CommentsStore10post_reply0B8_
FNDA:2,_RNCNvMs_NtCsiFtzeUpmjej_13mdviewer_core8commentsNtB6_13CommentsStore14resolve_thread0B8_
FNDA:6,_RNCNvMs_NtCsiFtzeUpmjej_13mdviewer_core8commentsNtB6_13CommentsStore4emit0B8_
FNDA:0,_RNCNvNtCsiFtzeUpmjej_13mdviewer_core8comments12merge_stores0B5_
FNDA:0,_RNCNvNtCsiFtzeUpmjej_13mdviewer_core8comments12union_thread0B5_
FNDA:24,_RNCNvNtCsiFtzeUpmjej_13mdviewer_core8comments16post_merge_union0B5_
FNDA:0,_RNCNvNtCsiFtzeUpmjej_13mdviewer_core8comments18store_to_automerge0B5_
FNDA:0,_RNCNvNtCsiFtzeUpmjej_13mdviewer_core8comments20store_from_automerge0B5_
FNDA:0,_RNCNvNtCsiFtzeUpmjej_13mdviewer_core8comments20store_from_automerges_0B5_
FNDA:0,_RNCNCNvNtCsekErrGBc1MS_13mdviewer_core8comments16post_merge_union00B7_
FNDA:0,_RNCNvMs_NtCsekErrGBc1MS_13mdviewer_core8commentsNtB6_13CommentsStore10get_thread0B8_
FNDA:0,_RNCNvMs_NtCsekErrGBc1MS_13mdviewer_core8commentsNtB6_13CommentsStore10post_reply0B8_
FNDA:0,_RNCNvMs_NtCsekErrGBc1MS_13mdviewer_core8commentsNtB6_13CommentsStore14resolve_thread0B8_
FNDA:0,_RNCNvMs_NtCsekErrGBc1MS_13mdviewer_core8commentsNtB6_13CommentsStore4emit0B8_
FNDA:0,_RNCNvNtCsekErrGBc1MS_13mdviewer_core8comments12merge_stores0B5_
FNDA:0,_RNCNvNtCsekErrGBc1MS_13mdviewer_core8comments12union_thread0B5_
FNDA:0,_RNCNvNtCsekErrGBc1MS_13mdviewer_core8comments16post_merge_union0B5_
FNDA:0,_RNCNvNtCsekErrGBc1MS_13mdviewer_core8comments18store_to_automerge0B5_
FNDA:0,_RNCNvNtCsekErrGBc1MS_13mdviewer_core8comments20store_from_automerge0B5_
FNDA:0,_RNCNvNtCsekErrGBc1MS_13mdviewer_core8comments20store_from_automerges_0B5_
FNDA:0,_RNvMs_NtCsekErrGBc1MS_13mdviewer_core8commentsNtB4_13CommentsStore10get_thread
FNDA:0,_RNvMs_NtCsekErrGBc1MS_13mdviewer_core8commentsNtB4_13CommentsStore10post_reply
FNDA:0,_RNvMs_NtCsekErrGBc1MS_13mdviewer_core8commentsNtB4_13CommentsStore11replace_all
FNDA:0,_RNvMs_NtCsekErrGBc1MS_13mdviewer_core8commentsNtB4_13CommentsStore12from_threads
FNDA:0,_RNvMs_NtCsekErrGBc1MS_13mdviewer_core8commentsNtB4_13CommentsStore12list_threads
FNDA:0,_RNvMs_NtCsekErrGBc1MS_13mdviewer_core8commentsNtB4_13CommentsStore13create_thread
FNDA:0,_RNvMs_NtCsekErrGBc1MS_13mdviewer_core8commentsNtB4_13CommentsStore14resolve_thread
FNDA:0,_RNvMs_NtCsekErrGBc1MS_13mdviewer_core8commentsNtB4_13CommentsStore3new
FNDA:0,_RNvMs_NtCsekErrGBc1MS_13mdviewer_core8commentsNtB4_13CommentsStore4emit
FNDA:0,_RNvMs_NtCsekErrGBc1MS_13mdviewer_core8commentsNtB4_13CommentsStore9subscribe
FNDA:0,_RNvNtCsekErrGBc1MS_13mdviewer_core8comments11now_rfc3339
FNDA:0,_RNvNtCsekErrGBc1MS_13mdviewer_core8comments12merge_stores
FNDA:0,_RNvNtCsekErrGBc1MS_13mdviewer_core8comments12union_thread
FNDA:0,_RNvNtCsekErrGBc1MS_13mdviewer_core8comments15civil_from_days
FNDA:0,_RNvNtCsekErrGBc1MS_13mdviewer_core8comments16post_merge_union
FNDA:0,_RNvNtCsekErrGBc1MS_13mdviewer_core8comments18store_to_automerge
FNDA:0,_RNvNtCsekErrGBc1MS_13mdviewer_core8comments20store_from_automerge
FNDA:0,_RNvNtCsekErrGBc1MS_13mdviewer_core8comments6new_id
FNDA:0,_RNvNvNtCsekErrGBc1MS_13mdviewer_core8comments12merge_stores9try_merge
FNDA:0,_RNvXNtCsekErrGBc1MS_13mdviewer_core8commentsNtB2_13CommentsStoreNtNtCsgEmfK2I1SDS_4core7default7Default7default
FNDA:0,_RNCNCNvNtCs3ikr03e7esg_13mdviewer_core8comments16post_merge_union00B7_
FNDA:0,_RNCNvMs_NtCs3ikr03e7esg_13mdviewer_core8commentsNtB6_13CommentsStore10get_thread0B8_
FNDA:0,_RNCNvMs_NtCs3ikr03e7esg_13mdviewer_core8commentsNtB6_13CommentsStore10post_reply0B8_
FNDA:0,_RNCNvMs_NtCs3ikr03e7esg_13mdviewer_core8commentsNtB6_13CommentsStore14resolve_thread0B8_
FNDA:0,_RNCNvMs_NtCs3ikr03e7esg_13mdviewer_core8commentsNtB6_13CommentsStore4emit0B8_
FNDA:0,_RNCNvNtCs3ikr03e7esg_13mdviewer_core8comments12merge_stores0B5_
FNDA:0,_RNCNvNtCs3ikr03e7esg_13mdviewer_core8comments12union_thread0B5_
FNDA:0,_RNCNvNtCs3ikr03e7esg_13mdviewer_core8comments16post_merge_union0B5_
FNDA:0,_RNvMs_NtCs3ikr03e7esg_13mdviewer_core8commentsNtB4_13CommentsStore10get_thread
FNDA:0,_RNvMs_NtCs3ikr03e7esg_13mdviewer_core8commentsNtB4_13CommentsStore10post_reply
FNDA:0,_RNvMs_NtCs3ikr03e7esg_13mdviewer_core8commentsNtB4_13CommentsStore11replace_all
FNDA:0,_RNvMs_NtCs3ikr03e7esg_13mdviewer_core8commentsNtB4_13CommentsStore13create_thread
FNDA:0,_RNvMs_NtCs3ikr03e7esg_13mdviewer_core8commentsNtB4_13CommentsStore14resolve_thread
FNDA:0,_RNvMs_NtCs3ikr03e7esg_13mdviewer_core8commentsNtB4_13CommentsStore4emit
FNDA:0,_RNvMs_NtCs3ikr03e7esg_13mdviewer_core8commentsNtB4_13CommentsStore9subscribe
FNDA:0,_RNvNtCs3ikr03e7esg_13mdviewer_core8comments11now_rfc3339
FNDA:0,_RNvNtCs3ikr03e7esg_13mdviewer_core8comments12merge_stores
FNDA:0,_RNvNtCs3ikr03e7esg_13mdviewer_core8comments12union_thread
FNDA:0,_RNvNtCs3ikr03e7esg_13mdviewer_core8comments15civil_from_days
FNDA:0,_RNvNtCs3ikr03e7esg_13mdviewer_core8comments16post_merge_union
FNDA:0,_RNvNtCs3ikr03e7esg_13mdviewer_core8comments6new_id
FNDA:0,_RNvNvNtCs3ikr03e7esg_13mdviewer_core8comments12merge_stores9try_merge
FNDA:0,_RNvXNtCs3ikr03e7esg_13mdviewer_core8commentsNtB2_13CommentsStoreNtNtCsgEmfK2I1SDS_4core7default7Default7default
FNDA:1,_RNvMs_NtCs3ikr03e7esg_13mdviewer_core8commentsNtB4_13CommentsStore12from_threads
FNDA:4,_RNvMs_NtCs3ikr03e7esg_13mdviewer_core8commentsNtB4_13CommentsStore12list_threads
FNDA:1,_RNvMs_NtCs3ikr03e7esg_13mdviewer_core8commentsNtB4_13CommentsStore3new
FNDA:1,_RNvNtCs3ikr03e7esg_13mdviewer_core8comments18store_to_automerge
FNDA:1,_RNvNtCs3ikr03e7esg_13mdviewer_core8comments20store_from_automerge
FNDA:0,_RNCNvNtCs3ikr03e7esg_13mdviewer_core8comments18store_to_automerge0B5_
FNDA:0,_RNCNvNtCs3ikr03e7esg_13mdviewer_core8comments20store_from_automerge0B5_
FNDA:0,_RNCNvNtCs3ikr03e7esg_13mdviewer_core8comments20store_from_automerges_0B5_
FNF:31
FNH:25
DA:114,1
DA:115,1
DA:116,1
DA:120,62
DA:121,62
DA:122,62
DA:123,62
DA:124,62
DA:125,62
DA:128,23
DA:129,23
DA:130,23
DA:131,23
DA:132,23
DA:133,23
DA:137,6
DA:138,6
DA:139,6
DA:140,6
DA:141,6
DA:143,37
DA:144,37
DA:145,37
DA:146,37
DA:148,130
DA:149,130
DA:150,130
DA:152,3
DA:153,3
DA:154,3
DA:159,29
DA:160,29
DA:161,29
DA:162,29
DA:163,29
DA:164,29
DA:165,29
DA:166,29
DA:167,29
DA:168,29
DA:169,29
DA:170,29
DA:171,29
DA:172,29
DA:173,29
DA:174,29
DA:175,29
DA:176,29
DA:177,29
DA:178,29
DA:179,29
DA:180,29
DA:182,3
DA:183,3
DA:184,3
DA:185,3
DA:186,3
DA:187,3
DA:188,3
DA:189,3
DA:190,3
DA:191,3
DA:192,2
DA:193,2
DA:194,2
DA:195,2
DA:196,2
DA:197,2
DA:198,2
DA:199,2
DA:200,2
DA:201,2
DA:202,3
DA:204,3
DA:205,3
DA:206,3
DA:207,3
DA:208,3
DA:209,3
DA:210,3
DA:211,3
DA:212,3
DA:213,3
DA:214,2
DA:215,2
DA:216,2
DA:217,2
DA:218,2
DA:219,3
DA:223,4
DA:224,4
DA:225,4
DA:226,4
DA:229,33
DA:231,33
DA:232,33
DA:233,33
DA:234,33
DA:238,33
DA:239,33
DA:240,33
DA:241,33
DA:242,33
DA:243,33
DA:244,33
DA:247,33
DA:252,33
DA:253,33
DA:254,33
DA:255,33
DA:256,33
DA:257,33
DA:258,33
DA:259,33
DA:260,33
DA:261,33
DA:262,33
DA:263,33
DA:264,33
DA:271,60
DA:274,60
DA:275,60
DA:276,60
DA:277,60
DA:278,60
DA:279,60
DA:280,60
DA:303,22
DA:304,22
DA:305,22
DA:306,21
DA:307,21
DA:308,21
DA:310,22
DA:311,22
DA:316,14
DA:317,14
DA:318,14
DA:319,20
DA:320,20
DA:321,20
DA:322,20
DA:323,20
DA:324,20
DA:325,20
DA:326,20
DA:327,20
DA:328,0
DA:329,0
DA:331,14
DA:332,14
DA:354,6
DA:355,6
DA:356,6
DA:357,6
DA:358,6
DA:359,6
DA:360,6
DA:361,6
DA:362,6
DA:363,6
DA:364,6
DA:365,6
DA:366,6
DA:372,6
DA:373,6
DA:374,6
DA:375,6
DA:376,6
DA:377,24
DA:378,25
DA:379,24
DA:380,6
DA:381,12
DA:382,12
DA:383,12
DA:384,12
DA:385,0
DA:386,12
DA:389,6
DA:390,6
DA:392,0
DA:394,0
DA:395,0
DA:396,0
DA:397,0
DA:398,0
DA:399,0
DA:403,0
DA:404,0
DA:405,0
DA:406,0
DA:407,0
DA:408,0
DA:409,0
DA:410,0
DA:411,0
DA:412,0
DA:413,0
DA:414,0
DA:415,0
BRF:0
BRH:0
LF:212
LH:184
end_of_record
SF:/home/ggtest/Work/Claude/MDViewer/.claude/worktrees/mdviewer-android/crates/mdviewer-core/src/document.rs
FN:271,_RNvNtCsiFtzeUpmjej_13mdviewer_core8document10emit_close
FN:66,_RNvNtCsiFtzeUpmjej_13mdviewer_core8document10syntax_set
FN:305,_RNvNtCsiFtzeUpmjej_13mdviewer_core8document11escape_html
FN:293,_RNvNtCsiFtzeUpmjej_13mdviewer_core8document11heading_tag
FN:197,_RNvNtCsiFtzeUpmjej_13mdviewer_core8document15emit_code_block
FN:84,_RNvNtCsiFtzeUpmjej_13mdviewer_core8document15render_markdown
FN:71,_RNvNtCsiFtzeUpmjej_13mdviewer_core8document5theme
FN:243,_RNvNtCsiFtzeUpmjej_13mdviewer_core8document9emit_open
FN:45,_RNvXNtCsiFtzeUpmjej_13mdviewer_core8documentNtB2_13RenderOptionsNtNtCsgEmfK2I1SDS_4core7default7Default7default
FN:213,_RNCNvNtCsiFtzeUpmjej_13mdviewer_core8document15emit_code_block0B5_
FN:78,_RNCNvNtCsiFtzeUpmjej_13mdviewer_core8document5theme0B5_
FN:213,_RNCNvNtCsekErrGBc1MS_13mdviewer_core8document15emit_code_block0B5_
FN:78,_RNCNvNtCsekErrGBc1MS_13mdviewer_core8document5theme0B5_
FN:271,_RNvNtCsekErrGBc1MS_13mdviewer_core8document10emit_close
FN:66,_RNvNtCsekErrGBc1MS_13mdviewer_core8document10syntax_set
FN:305,_RNvNtCsekErrGBc1MS_13mdviewer_core8document11escape_html
FN:293,_RNvNtCsekErrGBc1MS_13mdviewer_core8document11heading_tag
FN:197,_RNvNtCsekErrGBc1MS_13mdviewer_core8document15emit_code_block
FN:84,_RNvNtCsekErrGBc1MS_13mdviewer_core8document15render_markdown
FN:71,_RNvNtCsekErrGBc1MS_13mdviewer_core8document5theme
FN:243,_RNvNtCsekErrGBc1MS_13mdviewer_core8document9emit_open
FN:45,_RNvXNtCsekErrGBc1MS_13mdviewer_core8documentNtB2_13RenderOptionsNtNtCsgEmfK2I1SDS_4core7default7Default7default
FN:45,_RNvXNtCs3ikr03e7esg_13mdviewer_core8documentNtB2_13RenderOptionsNtNtCsgEmfK2I1SDS_4core7default7Default7default
FN:271,_RNvNtCs3ikr03e7esg_13mdviewer_core8document10emit_close
FN:66,_RNvNtCs3ikr03e7esg_13mdviewer_core8document10syntax_set
FN:305,_RNvNtCs3ikr03e7esg_13mdviewer_core8document11escape_html
FN:293,_RNvNtCs3ikr03e7esg_13mdviewer_core8document11heading_tag
FN:197,_RNvNtCs3ikr03e7esg_13mdviewer_core8document15emit_code_block
FN:84,_RNvNtCs3ikr03e7esg_13mdviewer_core8document15render_markdown
FN:71,_RNvNtCs3ikr03e7esg_13mdviewer_core8document5theme
FN:243,_RNvNtCs3ikr03e7esg_13mdviewer_core8document9emit_open
FN:213,_RNCNvNtCs3ikr03e7esg_13mdviewer_core8document15emit_code_block0B5_
FN:78,_RNCNvNtCs3ikr03e7esg_13mdviewer_core8document5theme0B5_
FNDA:83,_RNvNtCsiFtzeUpmjej_13mdviewer_core8document10emit_close
FNDA:3,_RNvNtCsiFtzeUpmjej_13mdviewer_core8document10syntax_set
FNDA:108,_RNvNtCsiFtzeUpmjej_13mdviewer_core8document11escape_html
FNDA:56,_RNvNtCsiFtzeUpmjej_13mdviewer_core8document11heading_tag
FNDA:8,_RNvNtCsiFtzeUpmjej_13mdviewer_core8document15emit_code_block
FNDA:49,_RNvNtCsiFtzeUpmjej_13mdviewer_core8document15render_markdown
FNDA:2,_RNvNtCsiFtzeUpmjej_13mdviewer_core8document5theme
FNDA:83,_RNvNtCsiFtzeUpmjej_13mdviewer_core8document9emit_open
FNDA:24,_RNvXNtCsiFtzeUpmjej_13mdviewer_core8documentNtB2_13RenderOptionsNtNtCsgEmfK2I1SDS_4core7default7Default7default
FNDA:1,_RNCNvNtCsiFtzeUpmjej_13mdviewer_core8document15emit_code_block0B5_
FNDA:0,_RNCNvNtCsiFtzeUpmjej_13mdviewer_core8document5theme0B5_
FNDA:0,_RNCNvNtCsekErrGBc1MS_13mdviewer_core8document15emit_code_block0B5_
FNDA:0,_RNCNvNtCsekErrGBc1MS_13mdviewer_core8document5theme0B5_
FNDA:0,_RNvNtCsekErrGBc1MS_13mdviewer_core8document10emit_close
FNDA:0,_RNvNtCsekErrGBc1MS_13mdviewer_core8document10syntax_set
FNDA:0,_RNvNtCsekErrGBc1MS_13mdviewer_core8document11escape_html
FNDA:0,_RNvNtCsekErrGBc1MS_13mdviewer_core8document11heading_tag
FNDA:0,_RNvNtCsekErrGBc1MS_13mdviewer_core8document15emit_code_block
FNDA:0,_RNvNtCsekErrGBc1MS_13mdviewer_core8document15render_markdown
FNDA:0,_RNvNtCsekErrGBc1MS_13mdviewer_core8document5theme
FNDA:0,_RNvNtCsekErrGBc1MS_13mdviewer_core8document9emit_open
FNDA:0,_RNvXNtCsekErrGBc1MS_13mdviewer_core8documentNtB2_13RenderOptionsNtNtCsgEmfK2I1SDS_4core7default7Default7default
FNDA:0,_RNvXNtCs3ikr03e7esg_13mdviewer_core8documentNtB2_13RenderOptionsNtNtCsgEmfK2I1SDS_4core7default7Default7default
FNDA:1,_RNvNtCs3ikr03e7esg_13mdviewer_core8document10emit_close
FNDA:0,_RNvNtCs3ikr03e7esg_13mdviewer_core8document10syntax_set
FNDA:1,_RNvNtCs3ikr03e7esg_13mdviewer_core8document11escape_html
FNDA:2,_RNvNtCs3ikr03e7esg_13mdviewer_core8document11heading_tag
FNDA:0,_RNvNtCs3ikr03e7esg_13mdviewer_core8document15emit_code_block
FNDA:1,_RNvNtCs3ikr03e7esg_13mdviewer_core8document15render_markdown
FNDA:0,_RNvNtCs3ikr03e7esg_13mdviewer_core8document5theme
FNDA:1,_RNvNtCs3ikr03e7esg_13mdviewer_core8document9emit_open
FNDA:0,_RNCNvNtCs3ikr03e7esg_13mdviewer_core8document15emit_code_block0B5_
FNDA:0,_RNCNvNtCs3ikr03e7esg_13mdviewer_core8document5theme0B5_
FNF:11
FNH:10
DA:45,24
DA:46,24
DA:47,24
DA:48,24
DA:49,24
DA:50,24
DA:66,3
DA:68,3
DA:69,3
DA:71,2
DA:73,2
DA:76,2
DA:77,2
DA:78,2
DA:79,2
DA:80,2
DA:84,50
DA:85,50
DA:86,50
DA:87,50
DA:88,50
DA:89,50
DA:91,50
DA:93,50
DA:94,50
DA:95,50
DA:96,50
DA:97,50
DA:101,50
DA:106,50
DA:108,319
DA:109,8
DA:110,7
DA:111,7
DA:112,7
DA:113,7
DA:114,7
DA:115,1
DA:116,1
DA:117,1
DA:118,1
DA:119,1
DA:120,8
DA:121,8
DA:122,8
DA:123,8
DA:124,8
DA:125,8
DA:126,1
DA:127,1
DA:128,1
DA:129,1
DA:130,1
DA:131,1
DA:132,1
DA:133,1
DA:134,9
DA:135,92
DA:136,91
DA:137,91
DA:138,91
DA:139,91
DA:140,91
DA:141,91
DA:142,91
DA:143,91
DA:144,91
DA:145,91
DA:146,3
DA:147,3
DA:148,3
DA:149,3
DA:150,3
DA:151,3
DA:152,3
DA:153,3
DA:154,3
DA:155,3
DA:156,2
DA:157,2
DA:158,2
DA:159,2
DA:160,2
DA:161,2
DA:162,2
DA:163,2
DA:165,8
DA:168,8
DA:170,84
DA:171,84
DA:172,2
DA:173,1
DA:174,1
DA:175,3
DA:176,3
DA:177,1
DA:178,2
DA:179,2
DA:180,2
DA:182,2
DA:183,2
DA:184,2
DA:185,2
DA:186,2
DA:190,0
DA:194,50
DA:195,50
DA:197,8
DA:198,8
DA:199,2
DA:200,1
DA:201,1
DA:202,1
DA:204,1
DA:205,1
DA:206,1
DA:207,1
DA:208,6
DA:209,6
DA:210,3
DA:211,3
DA:212,3
DA:213,3
DA:215,2
DA:216,2
DA:217,2
DA:219,2
DA:221,4
DA:222,4
DA:223,4
DA:224,4
DA:225,4
DA:226,4
DA:227,4
DA:228,0
DA:230,2
DA:231,2
DA:232,1
DA:233,3
DA:234,4
DA:235,2
DA:236,2
DA:237,2
DA:238,2
DA:239,4
DA:240,4
DA:241,8
DA:243,84
DA:244,5
DA:245,25
DA:246,29
DA:247,29
DA:248,29
DA:249,2
DA:250,1
DA:251,4
DA:252,9
DA:253,2
DA:254,2
DA:255,1
DA:256,3
DA:257,3
DA:258,3
DA:259,2
DA:260,0
DA:261,2
DA:262,0
DA:267,2
DA:269,84
DA:271,84
DA:272,84
DA:273,25
DA:274,29
DA:275,29
DA:276,29
DA:277,2
DA:278,1
DA:279,4
DA:280,9
DA:281,2
DA:282,2
DA:283,1
DA:284,3
DA:285,2
DA:286,0
DA:287,2
DA:288,0
DA:289,2
DA:291,84
DA:293,58
DA:295,58
DA:296,44
DA:297,6
DA:298,2
DA:299,2
DA:300,2
DA:301,2
DA:303,58
DA:305,109
DA:306,109
DA:307,814
DA:308,814
DA:309,1
DA:310,1
DA:311,3
DA:312,2
DA:313,2
DA:314,805
DA:317,109
DA:318,109
BRF:0
BRH:0
LF:212
LH:205
end_of_record
SF:/home/ggtest/Work/Claude/MDViewer/.claude/worktrees/mdviewer-android/crates/mdviewer-core/src/sidecar.rs
FN:126,_RNvNtCsiFtzeUpmjej_13mdviewer_core7sidecar17merge_with_policy
FN:68,_RNvNtCsiFtzeUpmjej_13mdviewer_core7sidecar18load_sidecar_bytes
FN:105,_RNvNtCsiFtzeUpmjej_13mdviewer_core7sidecar18save_sidecar_bytes
FN:126,_RNvNtCsekErrGBc1MS_13mdviewer_core7sidecar17merge_with_policy
FN:68,_RNvNtCsekErrGBc1MS_13mdviewer_core7sidecar18load_sidecar_bytes
FN:105,_RNvNtCsekErrGBc1MS_13mdviewer_core7sidecar18save_sidecar_bytes
FN:126,_RNvNtCs3ikr03e7esg_13mdviewer_core7sidecar17merge_with_policy
FN:68,_RNvNtCs3ikr03e7esg_13mdviewer_core7sidecar18load_sidecar_bytes
FN:105,_RNvNtCs3ikr03e7esg_13mdviewer_core7sidecar18save_sidecar_bytes
FNDA:7,_RNvNtCsiFtzeUpmjej_13mdviewer_core7sidecar17merge_with_policy
FNDA:14,_RNvNtCsiFtzeUpmjej_13mdviewer_core7sidecar18load_sidecar_bytes
FNDA:8,_RNvNtCsiFtzeUpmjej_13mdviewer_core7sidecar18save_sidecar_bytes
FNDA:0,_RNvNtCsekErrGBc1MS_13mdviewer_core7sidecar17merge_with_policy
FNDA:0,_RNvNtCsekErrGBc1MS_13mdviewer_core7sidecar18load_sidecar_bytes
FNDA:0,_RNvNtCsekErrGBc1MS_13mdviewer_core7sidecar18save_sidecar_bytes
FNDA:0,_RNvNtCs3ikr03e7esg_13mdviewer_core7sidecar17merge_with_policy
FNDA:2,_RNvNtCs3ikr03e7esg_13mdviewer_core7sidecar18load_sidecar_bytes
FNDA:1,_RNvNtCs3ikr03e7esg_13mdviewer_core7sidecar18save_sidecar_bytes
FNF:3
FNH:3
DA:68,16
DA:69,16
DA:70,2
DA:71,14
DA:74,14
DA:75,12
DA:77,7
DA:78,7
DA:79,7
DA:80,7
DA:81,7
DA:82,7
DA:83,7
DA:89,3
DA:90,3
DA:92,2
DA:94,16
DA:105,9
DA:106,9
DA:107,9
DA:108,9
DA:109,9
DA:110,9
DA:111,9
DA:112,9
DA:113,9
DA:126,7
DA:127,7
DA:128,7
DA:129,7
DA:130,7
DA:131,7
DA:132,7
DA:139,3
DA:141,4
DA:143,7
BRF:0
BRH:0
LF:36
LH:36
end_of_record
SF:/home/ggtest/Work/Claude/MDViewer/.claude/worktrees/mdviewer-android/crates/mdviewer-core/src/sidecar_path.rs
FN:34,_RNvNtCsiFtzeUpmjej_13mdviewer_core12sidecar_path16sidecar_filename
FN:34,_RNvNtCsekErrGBc1MS_13mdviewer_core12sidecar_path16sidecar_filename
FN:34,_RNvNtCs3ikr03e7esg_13mdviewer_core12sidecar_path16sidecar_filename
FN:72,_RNvNtNtCs3ikr03e7esg_13mdviewer_core12sidecar_path5testss_36multiple_name_tokens_all_substituted
FN:63,_RNvNtNtCs3ikr03e7esg_13mdviewer_core12sidecar_path5testss_45extensionless_filename_uses_full_name_as_stem
FN:56,_RNvNtNtCs3ikr03e7esg_13mdviewer_core12sidecar_path5testss_47dot_prefixed_filename_treats_whole_name_as_stem
FNDA:28,_RNvNtCsiFtzeUpmjej_13mdviewer_core12sidecar_path16sidecar_filename
FNDA:0,_RNvNtCsekErrGBc1MS_13mdviewer_core12sidecar_path16sidecar_filename
FNDA:4,_RNvNtCs3ikr03e7esg_13mdviewer_core12sidecar_path16sidecar_filename
FNDA:1,_RNvNtNtCs3ikr03e7esg_13mdviewer_core12sidecar_path5testss_36multiple_name_tokens_all_substituted
FNDA:1,_RNvNtNtCs3ikr03e7esg_13mdviewer_core12sidecar_path5testss_45extensionless_filename_uses_full_name_as_stem
FNDA:1,_RNvNtNtCs3ikr03e7esg_13mdviewer_core12sidecar_path5testss_47dot_prefixed_filename_treats_whole_name_as_stem
FNF:4
FNH:4
DA:34,32
DA:40,32
DA:41,30
DA:42,3
DA:44,32
DA:45,32
DA:56,1
DA:57,1
DA:58,1
DA:63,1
DA:64,1
DA:65,1
DA:72,1
DA:73,1
DA:74,1
DA:77,1
BRF:0
BRH:0
LF:16
LH:16
end_of_record
SF:/home/ggtest/Work/Claude/MDViewer/.claude/worktrees/mdviewer-android/crates/mdviewer-core/src/uniffi_bindgen_main.rs
FN:13,_RNvCs7r5CRIJ9vPw_14uniffi_bindgen4main
FN:13,_RNvCsc1VCx5zw3YW_14uniffi_bindgen4main
FNDA:0,_RNvCs7r5CRIJ9vPw_14uniffi_bindgen4main
FNDA:0,_RNvCsc1VCx5zw3YW_14uniffi_bindgen4main
FNF:1
FNH:0
DA:13,0
DA:14,0
DA:15,0
BRF:0
BRH:0
LF:3
LH:0
end_of_record
SF:/home/ggtest/Work/Claude/MDViewer/.claude/worktrees/mdviewer-android/crates/mdviewer-core/src/uniffi_bindings.rs
FN:224,_RNvMs3_NtCsiFtzeUpmjej_13mdviewer_core15uniffi_bindingsNtB5_19CommentsStoreHandle10from_store
FN:235,_RNvMs3_NtCsiFtzeUpmjej_13mdviewer_core15uniffi_bindingsNtB5_19CommentsStoreHandle7threads
FN:293,_RNvNtCsiFtzeUpmjej_13mdviewer_core15uniffi_bindings10u32_or_max
FN:252,_RNvNtCsiFtzeUpmjej_13mdviewer_core15uniffi_bindings15render_markdown
FN:281,_RNvNtCsiFtzeUpmjej_13mdviewer_core15uniffi_bindings16sidecar_filename
FN:261,_RNvNtCsiFtzeUpmjej_13mdviewer_core15uniffi_bindings18load_sidecar_bytes
FN:267,_RNvNtCsiFtzeUpmjej_13mdviewer_core15uniffi_bindings18save_sidecar_bytes
FN:65,_RNvXNtCsiFtzeUpmjej_13mdviewer_core15uniffi_bindingsNtB2_9CoreErrorINtNtCsgEmfK2I1SDS_4core7convert4FromNtCsiqrUEAaTIn_6anyhow5ErrorE4from
FN:135,_RNvXs0_NtCsiFtzeUpmjej_13mdviewer_core15uniffi_bindingsNtB5_6AnchorINtNtCsgEmfK2I1SDS_4core7convert4FromNtNtB7_6anchor6AnchorE4from
FN:162,_RNvXs1_NtCsiFtzeUpmjej_13mdviewer_core15uniffi_bindingsNtB5_7CommentINtNtCsgEmfK2I1SDS_4core7convert4FromNtNtB7_8comments7CommentE4from
FN:194,_RNvXs2_NtCsiFtzeUpmjej_13mdviewer_core15uniffi_bindingsNtB5_6ThreadINtNtCsgEmfK2I1SDS_4core7convert4FromNtNtB7_8comments6ThreadE4from
FN:102,_RNvXs_NtCsiFtzeUpmjej_13mdviewer_core15uniffi_bindingsNtB4_12RenderResultINtNtCsgEmfK2I1SDS_4core7convert4FromNtNtB6_8document12RenderResultE4from
FN:198,_RNCNvXs2_NtCsiFtzeUpmjej_13mdviewer_core15uniffi_bindingsNtB7_6ThreadINtNtCsgEmfK2I1SDS_4core7convert4FromNtNtB9_8comments6ThreadE4from0B9_
FN:108,_RNCNvXs_NtCsiFtzeUpmjej_13mdviewer_core15uniffi_bindingsNtB6_12RenderResultINtNtCsgEmfK2I1SDS_4core7convert4FromNtNtB8_8document12RenderResultE4from0B8_
FN:198,_RNCNvXs2_NtCsekErrGBc1MS_13mdviewer_core15uniffi_bindingsNtB7_6ThreadINtNtCsgEmfK2I1SDS_4core7convert4FromNtNtB9_8comments6ThreadE4from0B9_
FN:108,_RNCNvXs_NtCsekErrGBc1MS_13mdviewer_core15uniffi_bindingsNtB6_12RenderResultINtNtCsgEmfK2I1SDS_4core7convert4FromNtNtB8_8document12RenderResultE4from0B8_
FN:224,_RNvMs3_NtCsekErrGBc1MS_13mdviewer_core15uniffi_bindingsNtB5_19CommentsStoreHandle10from_store
FN:235,_RNvMs3_NtCsekErrGBc1MS_13mdviewer_core15uniffi_bindingsNtB5_19CommentsStoreHandle7threads
FN:293,_RNvNtCsekErrGBc1MS_13mdviewer_core15uniffi_bindings10u32_or_max
FN:252,_RNvNtCsekErrGBc1MS_13mdviewer_core15uniffi_bindings15render_markdown
FN:281,_RNvNtCsekErrGBc1MS_13mdviewer_core15uniffi_bindings16sidecar_filename
FN:261,_RNvNtCsekErrGBc1MS_13mdviewer_core15uniffi_bindings18load_sidecar_bytes
FN:267,_RNvNtCsekErrGBc1MS_13mdviewer_core15uniffi_bindings18save_sidecar_bytes
FN:65,_RNvXNtCsekErrGBc1MS_13mdviewer_core15uniffi_bindingsNtB2_9CoreErrorINtNtCsgEmfK2I1SDS_4core7convert4FromNtCsiqrUEAaTIn_6anyhow5ErrorE4from
FN:135,_RNvXs0_NtCsekErrGBc1MS_13mdviewer_core15uniffi_bindingsNtB5_6AnchorINtNtCsgEmfK2I1SDS_4core7convert4FromNtNtB7_6anchor6AnchorE4from
FN:162,_RNvXs1_NtCsekErrGBc1MS_13mdviewer_core15uniffi_bindingsNtB5_7CommentINtNtCsgEmfK2I1SDS_4core7convert4FromNtNtB7_8comments7CommentE4from
FN:194,_RNvXs2_NtCsekErrGBc1MS_13mdviewer_core15uniffi_bindingsNtB5_6ThreadINtNtCsgEmfK2I1SDS_4core7convert4FromNtNtB7_8comments6ThreadE4from
FN:102,_RNvXs_NtCsekErrGBc1MS_13mdviewer_core15uniffi_bindingsNtB4_12RenderResultINtNtCsgEmfK2I1SDS_4core7convert4FromNtNtB6_8document12RenderResultE4from
FN:198,_RNCNvXs2_NtCs3ikr03e7esg_13mdviewer_core15uniffi_bindingsNtB7_6ThreadINtNtCsgEmfK2I1SDS_4core7convert4FromNtNtB9_8comments6ThreadE4from0B9_
FN:108,_RNCNvXs_NtCs3ikr03e7esg_13mdviewer_core15uniffi_bindingsNtB6_12RenderResultINtNtCsgEmfK2I1SDS_4core7convert4FromNtNtB8_8document12RenderResultE4from0B8_
FN:396,_RNvNtNtCs3ikr03e7esg_13mdviewer_core15uniffi_bindings5testss_32u32_or_max_saturates_on_overflow
FN:306,_RNvNtNtCs3ikr03e7esg_13mdviewer_core15uniffi_bindings5testss_36anchor_into_wrapper_preserves_fields
FN:449,_RNvNtNtCs3ikr03e7esg_13mdviewer_core15uniffi_bindings5testss_40handle_round_trip_through_load_save_load
FN:462,_RNvNtNtCs3ikr03e7esg_13mdviewer_core15uniffi_bindings5testss_41render_markdown_wrapper_delegates_to_core
FN:411,_RNvNtNtCs3ikr03e7esg_13mdviewer_core15uniffi_bindings5testss_42anyhow_error_funnels_into_internal_variant
FN:422,_RNvNtNtCs3ikr03e7esg_13mdviewer_core15uniffi_bindings5testss_42render_result_projection_assigns_dom_index
FN:478,_RNvNtNtCs3ikr03e7esg_13mdviewer_core15uniffi_bindings5testss_42sidecar_filename_wrapper_substitutes_token
FN:326,_RNvNtNtCs3ikr03e7esg_13mdviewer_core15uniffi_bindings5testss_44thread_with_no_comments_has_empty_created_at
FN:350,_RNvNtNtCs3ikr03e7esg_13mdviewer_core15uniffi_bindings5testss_46thread_created_at_uses_first_comment_timestamp
FN:224,_RNvMs3_NtCs3ikr03e7esg_13mdviewer_core15uniffi_bindingsNtB5_19CommentsStoreHandle10from_store
FN:235,_RNvMs3_NtCs3ikr03e7esg_13mdviewer_core15uniffi_bindingsNtB5_19CommentsStoreHandle7threads
FN:293,_RNvNtCs3ikr03e7esg_13mdviewer_core15uniffi_bindings10u32_or_max
FN:252,_RNvNtCs3ikr03e7esg_13mdviewer_core15uniffi_bindings15render_markdown
FN:281,_RNvNtCs3ikr03e7esg_13mdviewer_core15uniffi_bindings16sidecar_filename
FN:261,_RNvNtCs3ikr03e7esg_13mdviewer_core15uniffi_bindings18load_sidecar_bytes
FN:267,_RNvNtCs3ikr03e7esg_13mdviewer_core15uniffi_bindings18save_sidecar_bytes
FN:65,_RNvXNtCs3ikr03e7esg_13mdviewer_core15uniffi_bindingsNtB2_9CoreErrorINtNtCsgEmfK2I1SDS_4core7convert4FromNtCsiqrUEAaTIn_6anyhow5ErrorE4from
FN:135,_RNvXs0_NtCs3ikr03e7esg_13mdviewer_core15uniffi_bindingsNtB5_6AnchorINtNtCsgEmfK2I1SDS_4core7convert4FromNtNtB7_6anchor6AnchorE4from
FN:162,_RNvXs1_NtCs3ikr03e7esg_13mdviewer_core15uniffi_bindingsNtB5_7CommentINtNtCsgEmfK2I1SDS_4core7convert4FromNtNtB7_8comments7CommentE4from
FN:194,_RNvXs2_NtCs3ikr03e7esg_13mdviewer_core15uniffi_bindingsNtB5_6ThreadINtNtCsgEmfK2I1SDS_4core7convert4FromNtNtB7_8comments6ThreadE4from
FN:102,_RNvXs_NtCs3ikr03e7esg_13mdviewer_core15uniffi_bindingsNtB4_12RenderResultINtNtCsgEmfK2I1SDS_4core7convert4FromNtNtB6_8document12RenderResultE4from
FNDA:0,_RNvMs3_NtCsiFtzeUpmjej_13mdviewer_core15uniffi_bindingsNtB5_19CommentsStoreHandle10from_store
FNDA:0,_RNvMs3_NtCsiFtzeUpmjej_13mdviewer_core15uniffi_bindingsNtB5_19CommentsStoreHandle7threads
FNDA:0,_RNvNtCsiFtzeUpmjej_13mdviewer_core15uniffi_bindings10u32_or_max
FNDA:0,_RNvNtCsiFtzeUpmjej_13mdviewer_core15uniffi_bindings15render_markdown
FNDA:0,_RNvNtCsiFtzeUpmjej_13mdviewer_core15uniffi_bindings16sidecar_filename
FNDA:0,_RNvNtCsiFtzeUpmjej_13mdviewer_core15uniffi_bindings18load_sidecar_bytes
FNDA:0,_RNvNtCsiFtzeUpmjej_13mdviewer_core15uniffi_bindings18save_sidecar_bytes
FNDA:0,_RNvXNtCsiFtzeUpmjej_13mdviewer_core15uniffi_bindingsNtB2_9CoreErrorINtNtCsgEmfK2I1SDS_4core7convert4FromNtCsiqrUEAaTIn_6anyhow5ErrorE4from
FNDA:0,_RNvXs0_NtCsiFtzeUpmjej_13mdviewer_core15uniffi_bindingsNtB5_6AnchorINtNtCsgEmfK2I1SDS_4core7convert4FromNtNtB7_6anchor6AnchorE4from
FNDA:0,_RNvXs1_NtCsiFtzeUpmjej_13mdviewer_core15uniffi_bindingsNtB5_7CommentINtNtCsgEmfK2I1SDS_4core7convert4FromNtNtB7_8comments7CommentE4from
FNDA:0,_RNvXs2_NtCsiFtzeUpmjej_13mdviewer_core15uniffi_bindingsNtB5_6ThreadINtNtCsgEmfK2I1SDS_4core7convert4FromNtNtB7_8comments6ThreadE4from
FNDA:0,_RNvXs_NtCsiFtzeUpmjej_13mdviewer_core15uniffi_bindingsNtB4_12RenderResultINtNtCsgEmfK2I1SDS_4core7convert4FromNtNtB6_8document12RenderResultE4from
FNDA:0,_RNCNvXs2_NtCsiFtzeUpmjej_13mdviewer_core15uniffi_bindingsNtB7_6ThreadINtNtCsgEmfK2I1SDS_4core7convert4FromNtNtB9_8comments6ThreadE4from0B9_
FNDA:0,_RNCNvXs_NtCsiFtzeUpmjej_13mdviewer_core15uniffi_bindingsNtB6_12RenderResultINtNtCsgEmfK2I1SDS_4core7convert4FromNtNtB8_8document12RenderResultE4from0B8_
FNDA:0,_RNCNvXs2_NtCsekErrGBc1MS_13mdviewer_core15uniffi_bindingsNtB7_6ThreadINtNtCsgEmfK2I1SDS_4core7convert4FromNtNtB9_8comments6ThreadE4from0B9_
FNDA:0,_RNCNvXs_NtCsekErrGBc1MS_13mdviewer_core15uniffi_bindingsNtB6_12RenderResultINtNtCsgEmfK2I1SDS_4core7convert4FromNtNtB8_8document12RenderResultE4from0B8_
FNDA:0,_RNvMs3_NtCsekErrGBc1MS_13mdviewer_core15uniffi_bindingsNtB5_19CommentsStoreHandle10from_store
FNDA:0,_RNvMs3_NtCsekErrGBc1MS_13mdviewer_core15uniffi_bindingsNtB5_19CommentsStoreHandle7threads
FNDA:0,_RNvNtCsekErrGBc1MS_13mdviewer_core15uniffi_bindings10u32_or_max
FNDA:0,_RNvNtCsekErrGBc1MS_13mdviewer_core15uniffi_bindings15render_markdown
FNDA:0,_RNvNtCsekErrGBc1MS_13mdviewer_core15uniffi_bindings16sidecar_filename
FNDA:0,_RNvNtCsekErrGBc1MS_13mdviewer_core15uniffi_bindings18load_sidecar_bytes
FNDA:0,_RNvNtCsekErrGBc1MS_13mdviewer_core15uniffi_bindings18save_sidecar_bytes
FNDA:0,_RNvXNtCsekErrGBc1MS_13mdviewer_core15uniffi_bindingsNtB2_9CoreErrorINtNtCsgEmfK2I1SDS_4core7convert4FromNtCsiqrUEAaTIn_6anyhow5ErrorE4from
FNDA:0,_RNvXs0_NtCsekErrGBc1MS_13mdviewer_core15uniffi_bindingsNtB5_6AnchorINtNtCsgEmfK2I1SDS_4core7convert4FromNtNtB7_6anchor6AnchorE4from
FNDA:0,_RNvXs1_NtCsekErrGBc1MS_13mdviewer_core15uniffi_bindingsNtB5_7CommentINtNtCsgEmfK2I1SDS_4core7convert4FromNtNtB7_8comments7CommentE4from
FNDA:0,_RNvXs2_NtCsekErrGBc1MS_13mdviewer_core15uniffi_bindingsNtB5_6ThreadINtNtCsgEmfK2I1SDS_4core7convert4FromNtNtB7_8comments6ThreadE4from
FNDA:0,_RNvXs_NtCsekErrGBc1MS_13mdviewer_core15uniffi_bindingsNtB4_12RenderResultINtNtCsgEmfK2I1SDS_4core7convert4FromNtNtB6_8document12RenderResultE4from
FNDA:1,_RNCNvXs2_NtCs3ikr03e7esg_13mdviewer_core15uniffi_bindingsNtB7_6ThreadINtNtCsgEmfK2I1SDS_4core7convert4FromNtNtB9_8comments6ThreadE4from0B9_
FNDA:4,_RNCNvXs_NtCs3ikr03e7esg_13mdviewer_core15uniffi_bindingsNtB6_12RenderResultINtNtCsgEmfK2I1SDS_4core7convert4FromNtNtB8_8document12RenderResultE4from0B8_
FNDA:1,_RNvNtNtCs3ikr03e7esg_13mdviewer_core15uniffi_bindings5testss_32u32_or_max_saturates_on_overflow
FNDA:1,_RNvNtNtCs3ikr03e7esg_13mdviewer_core15uniffi_bindings5testss_36anchor_into_wrapper_preserves_fields
FNDA:1,_RNvNtNtCs3ikr03e7esg_13mdviewer_core15uniffi_bindings5testss_40handle_round_trip_through_load_save_load
FNDA:1,_RNvNtNtCs3ikr03e7esg_13mdviewer_core15uniffi_bindings5testss_41render_markdown_wrapper_delegates_to_core
FNDA:1,_RNvNtNtCs3ikr03e7esg_13mdviewer_core15uniffi_bindings5testss_42anyhow_error_funnels_into_internal_variant
FNDA:1,_RNvNtNtCs3ikr03e7esg_13mdviewer_core15uniffi_bindings5testss_42render_result_projection_assigns_dom_index
FNDA:1,_RNvNtNtCs3ikr03e7esg_13mdviewer_core15uniffi_bindings5testss_42sidecar_filename_wrapper_substitutes_token
FNDA:1,_RNvNtNtCs3ikr03e7esg_13mdviewer_core15uniffi_bindings5testss_44thread_with_no_comments_has_empty_created_at
FNDA:1,_RNvNtNtCs3ikr03e7esg_13mdviewer_core15uniffi_bindings5testss_46thread_created_at_uses_first_comment_timestamp
FNDA:2,_RNvMs3_NtCs3ikr03e7esg_13mdviewer_core15uniffi_bindingsNtB5_19CommentsStoreHandle10from_store
FNDA:3,_RNvMs3_NtCs3ikr03e7esg_13mdviewer_core15uniffi_bindingsNtB5_19CommentsStoreHandle7threads
FNDA:22,_RNvNtCs3ikr03e7esg_13mdviewer_core15uniffi_bindings10u32_or_max
FNDA:1,_RNvNtCs3ikr03e7esg_13mdviewer_core15uniffi_bindings15render_markdown
FNDA:1,_RNvNtCs3ikr03e7esg_13mdviewer_core15uniffi_bindings16sidecar_filename
FNDA:2,_RNvNtCs3ikr03e7esg_13mdviewer_core15uniffi_bindings18load_sidecar_bytes
FNDA:1,_RNvNtCs3ikr03e7esg_13mdviewer_core15uniffi_bindings18save_sidecar_bytes
FNDA:1,_RNvXNtCs3ikr03e7esg_13mdviewer_core15uniffi_bindingsNtB2_9CoreErrorINtNtCsgEmfK2I1SDS_4core7convert4FromNtCsiqrUEAaTIn_6anyhow5ErrorE4from
FNDA:3,_RNvXs0_NtCs3ikr03e7esg_13mdviewer_core15uniffi_bindingsNtB5_6AnchorINtNtCsgEmfK2I1SDS_4core7convert4FromNtNtB7_6anchor6AnchorE4from
FNDA:2,_RNvXs1_NtCs3ikr03e7esg_13mdviewer_core15uniffi_bindingsNtB5_7CommentINtNtCsgEmfK2I1SDS_4core7convert4FromNtNtB7_8comments7CommentE4from
FNDA:2,_RNvXs2_NtCs3ikr03e7esg_13mdviewer_core15uniffi_bindingsNtB5_6ThreadINtNtCsgEmfK2I1SDS_4core7convert4FromNtNtB7_8comments6ThreadE4from
FNDA:3,_RNvXs_NtCs3ikr03e7esg_13mdviewer_core15uniffi_bindingsNtB4_12RenderResultINtNtCsgEmfK2I1SDS_4core7convert4FromNtNtB6_8document12RenderResultE4from
FNF:23
FNH:23
DA:65,1
DA:70,1
DA:71,1
DA:102,3
DA:103,3
DA:104,3
DA:105,3
DA:106,3
DA:107,3
DA:108,4
DA:109,4
DA:110,4
DA:111,4
DA:112,3
DA:113,3
DA:114,3
DA:115,3
DA:116,3
DA:117,3
DA:135,3
DA:136,3
DA:137,3
DA:138,3
DA:139,3
DA:140,3
DA:141,3
DA:142,3
DA:143,3
DA:162,2
DA:163,2
DA:164,2
DA:165,2
DA:166,2
DA:167,2
DA:168,2
DA:169,2
DA:170,2
DA:171,2
DA:172,2
DA:173,2
DA:174,2
DA:175,2
DA:176,2
DA:194,2
DA:195,2
DA:196,2
DA:197,2
DA:198,2
DA:199,2
DA:200,2
DA:201,2
DA:202,2
DA:203,2
DA:204,2
DA:205,2
DA:206,2
DA:207,2
DA:224,2
DA:225,2
DA:226,2
DA:227,2
DA:228,2
DA:235,3
DA:236,3
DA:237,3
DA:238,3
DA:239,3
DA:240,3
DA:241,3
DA:242,3
DA:243,3
DA:244,3
DA:252,1
DA:253,1
DA:254,1
DA:255,1
DA:256,1
DA:257,1
DA:258,1
DA:261,2
DA:262,2
DA:263,2
DA:264,2
DA:267,1
DA:268,1
DA:269,1
DA:270,1
DA:271,1
DA:272,1
DA:273,1
DA:274,1
DA:275,1
DA:281,1
DA:282,1
DA:283,1
DA:293,22
DA:294,22
DA:295,22
DA:306,1
DA:307,1
DA:308,1
DA:309,1
DA:310,1
DA:311,1
DA:312,1
DA:313,1
DA:314,1
DA:315,1
DA:316,1
DA:317,1
DA:318,1
DA:319,1
DA:320,1
DA:326,1
DA:327,1
DA:328,1
DA:329,1
DA:330,1
DA:331,1
DA:332,1
DA:333,1
DA:334,1
DA:335,1
DA:336,1
DA:337,1
DA:338,1
DA:339,1
DA:340,1
DA:341,1
DA:342,1
DA:343,1
DA:344,1
DA:350,1
DA:351,1
DA:352,1
DA:353,1
DA:354,1
DA:355,1
DA:356,1
DA:357,1
DA:358,1
DA:359,1
DA:360,1
DA:361,1
DA:362,1
DA:363,1
DA:364,1
DA:365,1
DA:366,1
DA:367,1
DA:368,1
DA:369,1
DA:370,1
DA:371,1
DA:372,1
DA:373,1
DA:374,1
DA:375,1
DA:376,1
DA:377,1
DA:378,1
DA:379,1
DA:380,1
DA:381,1
DA:382,1
DA:383,1
DA:384,1
DA:385,1
DA:386,1
DA:387,1
DA:388,1
DA:389,1
DA:396,1
DA:397,1
DA:398,1
DA:399,1
DA:402,1
DA:403,1
DA:404,0
DA:405,1
DA:411,1
DA:412,1
DA:413,1
DA:414,1
DA:415,0
DA:417,1
DA:422,1
DA:423,1
DA:424,1
DA:425,1
DA:426,1
DA:427,1
DA:428,1
DA:429,1
DA:430,3
DA:431,3
DA:433,1
DA:434,1
DA:436,1
DA:437,1
DA:438,1
DA:439,1
DA:440,1
DA:441,1
DA:442,1
DA:449,1
DA:450,1
DA:451,1
DA:452,1
DA:453,1
DA:454,1
DA:455,1
DA:462,1
DA:463,1
DA:464,1
DA:465,1
DA:466,1
DA:467,1
DA:468,1
DA:470,1
DA:471,1
DA:472,1
DA:478,1
DA:479,1
DA:480,1
DA:483,1
BRF:0
BRH:0
LF:227
LH:225
end_of_record
SF:/home/ggtest/Work/Claude/MDViewer/.claude/worktrees/mdviewer-android/src-tauri/src/bin/export_types.rs
FN:7,_RNvCsf1QCa2UPC84_12export_types10export_all
FN:138,_RNvCsf1QCa2UPC84_12export_types4main
FN:131,_RNvCsf1QCa2UPC84_12export_types8write_to
FN:163,_RNvNtCsgPpoSqQHSsC_12export_types5testss_30write_to_creates_expected_file
FN:148,_RNvNtCsgPpoSqQHSsC_12export_types5testss_37export_all_emits_header_and_buildinfo
FN:138,_RNvCsgPpoSqQHSsC_12export_types4main
FN:7,_RNvCsgPpoSqQHSsC_12export_types10export_all
FN:131,_RNvCsgPpoSqQHSsC_12export_types8write_to
FNDA:1,_RNvCsf1QCa2UPC84_12export_types10export_all
FNDA:1,_RNvCsf1QCa2UPC84_12export_types4main
FNDA:1,_RNvCsf1QCa2UPC84_12export_types8write_to
FNDA:1,_RNvNtCsgPpoSqQHSsC_12export_types5testss_30write_to_creates_expected_file
FNDA:1,_RNvNtCsgPpoSqQHSsC_12export_types5testss_37export_all_emits_header_and_buildinfo
FNDA:0,_RNvCsgPpoSqQHSsC_12export_types4main
FNDA:2,_RNvCsgPpoSqQHSsC_12export_types10export_all
FNDA:1,_RNvCsgPpoSqQHSsC_12export_types8write_to
FNF:5
FNH:5
DA:7,3
DA:8,3
DA:9,3
DA:10,3
DA:13,3
DA:14,3
DA:17,3
DA:18,3
DA:19,3
DA:20,3
DA:25,3
DA:26,3
DA:27,3
DA:28,3
DA:29,3
DA:30,3
DA:31,3
DA:32,3
DA:33,3
DA:34,3
DA:35,3
DA:36,3
DA:37,3
DA:38,3
DA:39,3
DA:40,3
DA:44,3
DA:45,3
DA:46,3
DA:47,3
DA:48,3
DA:49,3
DA:50,3
DA:51,3
DA:54,3
DA:55,3
DA:56,3
DA:57,3
DA:61,3
DA:62,3
DA:65,3
DA:66,3
DA:67,3
DA:68,3
DA:71,3
DA:72,3
DA:73,3
DA:74,3
DA:75,3
DA:76,3
DA:77,3
DA:78,3
DA:81,3
DA:82,3
DA:83,3
DA:84,3
DA:87,3
DA:88,3
DA:91,3
DA:92,3
DA:93,3
DA:94,3
DA:97,3
DA:98,3
DA:101,3
DA:102,3
DA:106,3
DA:107,3
DA:113,3
DA:114,3
DA:115,3
DA:116,3
DA:117,3
DA:118,3
DA:126,3
DA:127,3
DA:131,2
DA:132,2
DA:133,2
DA:134,2
DA:135,2
DA:136,2
DA:138,1
DA:139,1
DA:140,1
DA:141,1
DA:148,1
DA:149,1
DA:150,1
DA:151,1
DA:154,1
DA:155,1
DA:156,1
DA:157,1
DA:160,1
DA:163,1
DA:167,1
DA:168,1
DA:169,1
DA:170,1
DA:171,1
DA:172,1
DA:173,1
BRF:0
BRH:0
LF:103
LH:103
end_of_record
SF:/home/ggtest/Work/Claude/MDViewer/.claude/worktrees/mdviewer-android/src-tauri/src/cli.rs
FN:46,_RNCNvNtCskXOmkMderRI_12mdviewer_lib3cli13urls_to_paths0B5_
FN:47,_RNCNvNtCskXOmkMderRI_12mdviewer_lib3cli13urls_to_pathss_0B5_
FN:44,_RNvNtCskXOmkMderRI_12mdviewer_lib3cli13urls_to_paths
FN:54,_RNvNtCskXOmkMderRI_12mdviewer_lib3cli21parse_positional_args
FN:93,_RNvNtNtCs2DXdqaz45d1_12mdviewer_lib3cli5tests4argv
FN:124,_RNvNtNtCs2DXdqaz45d1_12mdviewer_lib3cli5testss_11skips_flags
FN:139,_RNvNtNtCs2DXdqaz45d1_12mdviewer_lib3cli5testss_16skips_empty_args
FN:98,_RNvNtNtCs2DXdqaz45d1_12mdviewer_lib3cli5testss_27empty_when_only_binary_name
FN:200,_RNvNtNtCs2DXdqaz45d1_12mdviewer_lib3cli5testss_28canonicalizes_existing_files
FN:103,_RNvNtNtCs2DXdqaz45d1_12mdviewer_lib3cli5testss_28returns_each_positional_path
FN:163,_RNvNtNtCs2DXdqaz45d1_12mdviewer_lib3cli5testss_38urls_to_paths_filters_non_file_schemes
FN:186,_RNvNtNtCs2DXdqaz45d1_12mdviewer_lib3cli5testss_44urls_to_paths_canonicalizes_existing_targets
FN:149,_RNvNtNtCs2DXdqaz45d1_12mdviewer_lib3cli5testss_47migrate_sidecars_subcommand_consumes_everything
FN:182,_RNCNCNvNtNtCs2DXdqaz45d1_12mdviewer_lib3cli5testss_38urls_to_paths_filters_non_file_schemes00B9_
FN:94,_RNCNvNtNtCs2DXdqaz45d1_12mdviewer_lib3cli5tests4argv0B7_
FN:145,_RNCNvNtNtCs2DXdqaz45d1_12mdviewer_lib3cli5testss_16skips_empty_args0B7_
FN:214,_RNCNvNtNtCs2DXdqaz45d1_12mdviewer_lib3cli5testss_28canonicalizes_existing_files0B7_
FN:114,_RNCNvNtNtCs2DXdqaz45d1_12mdviewer_lib3cli5testss_28returns_each_positional_path0B7_
FN:118,_RNCNvNtNtCs2DXdqaz45d1_12mdviewer_lib3cli5testss_28returns_each_positional_paths_0B7_
FN:182,_RNCNvNtNtCs2DXdqaz45d1_12mdviewer_lib3cli5testss_38urls_to_paths_filters_non_file_schemes0B7_
FN:194,_RNCNvNtNtCs2DXdqaz45d1_12mdviewer_lib3cli5testss_44urls_to_paths_canonicalizes_existing_targets0B7_
FN:44,_RNvNtCs2DXdqaz45d1_12mdviewer_lib3cli13urls_to_paths
FN:54,_RNvNtCs2DXdqaz45d1_12mdviewer_lib3cli21parse_positional_args
FN:46,_RNCNvNtCs2DXdqaz45d1_12mdviewer_lib3cli13urls_to_paths0B5_
FN:47,_RNCNvNtCs2DXdqaz45d1_12mdviewer_lib3cli13urls_to_pathss_0B5_
FNDA:0,_RNCNvNtCskXOmkMderRI_12mdviewer_lib3cli13urls_to_paths0B5_
FNDA:0,_RNCNvNtCskXOmkMderRI_12mdviewer_lib3cli13urls_to_pathss_0B5_
FNDA:0,_RNvNtCskXOmkMderRI_12mdviewer_lib3cli13urls_to_paths
FNDA:0,_RNvNtCskXOmkMderRI_12mdviewer_lib3cli21parse_positional_args
FNDA:6,_RNvNtNtCs2DXdqaz45d1_12mdviewer_lib3cli5tests4argv
FNDA:1,_RNvNtNtCs2DXdqaz45d1_12mdviewer_lib3cli5testss_11skips_flags
FNDA:1,_RNvNtNtCs2DXdqaz45d1_12mdviewer_lib3cli5testss_16skips_empty_args
FNDA:1,_RNvNtNtCs2DXdqaz45d1_12mdviewer_lib3cli5testss_27empty_when_only_binary_name
FNDA:1,_RNvNtNtCs2DXdqaz45d1_12mdviewer_lib3cli5testss_28canonicalizes_existing_files
FNDA:1,_RNvNtNtCs2DXdqaz45d1_12mdviewer_lib3cli5testss_28returns_each_positional_path
FNDA:1,_RNvNtNtCs2DXdqaz45d1_12mdviewer_lib3cli5testss_38urls_to_paths_filters_non_file_schemes
FNDA:1,_RNvNtNtCs2DXdqaz45d1_12mdviewer_lib3cli5testss_44urls_to_paths_canonicalizes_existing_targets
FNDA:1,_RNvNtNtCs2DXdqaz45d1_12mdviewer_lib3cli5testss_47migrate_sidecars_subcommand_consumes_everything
FNDA:2,_RNCNCNvNtNtCs2DXdqaz45d1_12mdviewer_lib3cli5testss_38urls_to_paths_filters_non_file_schemes00B9_
FNDA:19,_RNCNvNtNtCs2DXdqaz45d1_12mdviewer_lib3cli5tests4argv0B7_
FNDA:1,_RNCNvNtNtCs2DXdqaz45d1_12mdviewer_lib3cli5testss_16skips_empty_args0B7_
FNDA:1,_RNCNvNtNtCs2DXdqaz45d1_12mdviewer_lib3cli5testss_28canonicalizes_existing_files0B7_
FNDA:1,_RNCNvNtNtCs2DXdqaz45d1_12mdviewer_lib3cli5testss_28returns_each_positional_path0B7_
FNDA:1,_RNCNvNtNtCs2DXdqaz45d1_12mdviewer_lib3cli5testss_28returns_each_positional_paths_0B7_
FNDA:2,_RNCNvNtNtCs2DXdqaz45d1_12mdviewer_lib3cli5testss_38urls_to_paths_filters_non_file_schemes0B7_
FNDA:1,_RNCNvNtNtCs2DXdqaz45d1_12mdviewer_lib3cli5testss_44urls_to_paths_canonicalizes_existing_targets0B7_
FNDA:2,_RNvNtCs2DXdqaz45d1_12mdviewer_lib3cli13urls_to_paths
FNDA:6,_RNvNtCs2DXdqaz45d1_12mdviewer_lib3cli21parse_positional_args
FNDA:4,_RNCNvNtCs2DXdqaz45d1_12mdviewer_lib3cli13urls_to_paths0B5_
FNDA:3,_RNCNvNtCs2DXdqaz45d1_12mdviewer_lib3cli13urls_to_pathss_0B5_
FNF:21
FNH:21
DA:44,2
DA:45,2
DA:46,4
DA:47,3
DA:48,2
DA:49,2
DA:54,6
DA:55,6
DA:58,6
DA:64,6
DA:65,6
DA:66,5
DA:69,1
DA:70,4
DA:71,1
DA:73,5
DA:74,15
DA:75,10
DA:76,6
DA:77,6
DA:78,6
DA:79,6
DA:80,6
DA:81,6
DA:82,6
DA:83,6
DA:84,10
DA:86,5
DA:87,6
DA:93,6
DA:94,19
DA:95,6
DA:98,1
DA:99,1
DA:100,1
DA:103,1
DA:107,1
DA:108,1
DA:109,1
DA:110,1
DA:111,1
DA:112,1
DA:113,1
DA:114,1
DA:117,1
DA:118,1
DA:121,1
DA:124,1
DA:128,1
DA:129,1
DA:130,1
DA:131,1
DA:132,1
DA:133,1
DA:134,1
DA:135,1
DA:136,1
DA:139,1
DA:143,1
DA:144,1
DA:145,1
DA:146,1
DA:149,1
DA:153,1
DA:154,1
DA:155,1
DA:156,1
DA:157,1
DA:158,1
DA:159,1
DA:160,1
DA:163,1
DA:170,1
DA:171,1
DA:172,1
DA:173,1
DA:174,1
DA:175,1
DA:176,1
DA:177,1
DA:178,1
DA:180,1
DA:181,1
DA:182,2
DA:183,1
DA:186,1
DA:187,1
DA:188,1
DA:189,1
DA:190,1
DA:191,1
DA:192,1
DA:193,1
DA:194,1
DA:197,1
DA:200,1
DA:203,1
DA:204,1
DA:205,1
DA:206,1
DA:207,1
DA:208,1
DA:209,1
DA:210,1
DA:213,1
DA:214,1
DA:217,1
BRF:0
BRH:0
LF:117
LH:117
end_of_record
SF:/home/ggtest/Work/Claude/MDViewer/.claude/worktrees/mdviewer-android/src-tauri/src/conflict.rs
FN:65,_RNCNvNtCskXOmkMderRI_12mdviewer_lib8conflict7diff_md0B5_
FN:80,_RNCNvNtCskXOmkMderRI_12mdviewer_lib8conflict7diff_mds_0B5_
FN:47,_RNvNtCskXOmkMderRI_12mdviewer_lib8conflict7diff_md
FN:65,_RNCNvNtCs2DXdqaz45d1_12mdviewer_lib8conflict7diff_md0B5_
FN:80,_RNCNvNtCs2DXdqaz45d1_12mdviewer_lib8conflict7diff_mds_0B5_
FN:47,_RNvNtCs2DXdqaz45d1_12mdviewer_lib8conflict7diff_md
FNDA:5,_RNCNvNtCskXOmkMderRI_12mdviewer_lib8conflict7diff_md0B5_
FNDA:2,_RNCNvNtCskXOmkMderRI_12mdviewer_lib8conflict7diff_mds_0B5_
FNDA:7,_RNvNtCskXOmkMderRI_12mdviewer_lib8conflict7diff_md
FNDA:0,_RNCNvNtCs2DXdqaz45d1_12mdviewer_lib8conflict7diff_md0B5_
FNDA:0,_RNCNvNtCs2DXdqaz45d1_12mdviewer_lib8conflict7diff_mds_0B5_
FNDA:0,_RNvNtCs2DXdqaz45d1_12mdviewer_lib8conflict7diff_md
FNF:3
FNH:3
DA:47,7
DA:48,7
DA:49,7
DA:50,7
DA:51,7
DA:52,7
DA:54,22
DA:55,22
DA:57,10
DA:58,3
DA:59,7
DA:60,10
DA:61,10
DA:64,6
DA:65,5
DA:66,5
DA:67,5
DA:68,5
DA:69,5
DA:70,5
DA:71,6
DA:72,6
DA:73,6
DA:74,6
DA:75,0
DA:76,6
DA:79,6
DA:80,2
DA:81,2
DA:82,2
DA:83,2
DA:84,2
DA:85,2
DA:86,6
DA:87,6
DA:88,6
DA:89,6
DA:90,3
DA:91,3
DA:95,7
DA:96,4
DA:97,4
DA:98,7
DA:99,7
BRF:0
BRH:0
LF:44
LH:43
end_of_record
SF:/home/ggtest/Work/Claude/MDViewer/.claude/worktrees/mdviewer-android/src-tauri/src/doc_prefs.rs
FN:107,_RNvMNtCskXOmkMderRI_12mdviewer_lib9doc_prefsNtB2_13DocPrefsStore4load
FN:66,_RNvMNtCskXOmkMderRI_12mdviewer_lib9doc_prefsNtB2_13DocPrefsStore4open
FN:119,_RNvMNtCskXOmkMderRI_12mdviewer_lib9doc_prefsNtB2_13DocPrefsStore4save
FN:129,_RNvMNtCskXOmkMderRI_12mdviewer_lib9doc_prefsNtB2_13DocPrefsStore6delete
FN:135,_RNvMNtCskXOmkMderRI_12mdviewer_lib9doc_prefsNtB2_13DocPrefsStore7persist
FN:142,_RNvNtCskXOmkMderRI_12mdviewer_lib9doc_prefs7key_for
FN:109,_RNCNvMNtCskXOmkMderRI_12mdviewer_lib9doc_prefsNtB4_13DocPrefsStore4load0B6_
FN:107,_RNvMNtCs2DXdqaz45d1_12mdviewer_lib9doc_prefsNtB2_13DocPrefsStore4load
FN:66,_RNvMNtCs2DXdqaz45d1_12mdviewer_lib9doc_prefsNtB2_13DocPrefsStore4open
FN:119,_RNvMNtCs2DXdqaz45d1_12mdviewer_lib9doc_prefsNtB2_13DocPrefsStore4save
FN:129,_RNvMNtCs2DXdqaz45d1_12mdviewer_lib9doc_prefsNtB2_13DocPrefsStore6delete
FN:135,_RNvMNtCs2DXdqaz45d1_12mdviewer_lib9doc_prefsNtB2_13DocPrefsStore7persist
FN:142,_RNvNtCs2DXdqaz45d1_12mdviewer_lib9doc_prefs7key_for
FN:109,_RNCNvMNtCs2DXdqaz45d1_12mdviewer_lib9doc_prefsNtB4_13DocPrefsStore4load0B6_
FN:151,_RNvNtNtCs2DXdqaz45d1_12mdviewer_lib9doc_prefs5tests8data_dir
FN:232,_RNvNtNtCs2DXdqaz45d1_12mdviewer_lib9doc_prefs5testss_21save_clamps_above_max
FN:249,_RNvNtNtCs2DXdqaz45d1_12mdviewer_lib9doc_prefs5testss_21save_clamps_below_min
FN:156,_RNvNtNtCs2DXdqaz45d1_12mdviewer_lib9doc_prefs5testss_27round_trip_load_save_delete
FN:310,_RNvNtNtCs2DXdqaz45d1_12mdviewer_lib9doc_prefs5testss_28delete_missing_entry_is_noop
FN:220,_RNvNtNtCs2DXdqaz45d1_12mdviewer_lib9doc_prefs5testss_30corrupt_file_returns_empty_map
FN:209,_RNvNtNtCs2DXdqaz45d1_12mdviewer_lib9doc_prefs5testss_30missing_file_returns_empty_map
FN:288,_RNvNtNtCs2DXdqaz45d1_12mdviewer_lib9doc_prefs5testss_34load_clamps_above_range_disk_value
FN:264,_RNvNtNtCs2DXdqaz45d1_12mdviewer_lib9doc_prefs5testss_35load_clamps_out_of_range_disk_value
FN:322,_RNvNtNtCs2DXdqaz45d1_12mdviewer_lib9doc_prefs5testss_35save_persists_canonical_key_to_disk
FN:182,_RNvNtNtCs2DXdqaz45d1_12mdviewer_lib9doc_prefs5testss_42canonical_keying_relative_matches_absolute
FNDA:24,_RNvMNtCskXOmkMderRI_12mdviewer_lib9doc_prefsNtB2_13DocPrefsStore4load
FNDA:53,_RNvMNtCskXOmkMderRI_12mdviewer_lib9doc_prefsNtB2_13DocPrefsStore4open
FNDA:10,_RNvMNtCskXOmkMderRI_12mdviewer_lib9doc_prefsNtB2_13DocPrefsStore4save
FNDA:3,_RNvMNtCskXOmkMderRI_12mdviewer_lib9doc_prefsNtB2_13DocPrefsStore6delete
FNDA:13,_RNvMNtCskXOmkMderRI_12mdviewer_lib9doc_prefsNtB2_13DocPrefsStore7persist
FNDA:37,_RNvNtCskXOmkMderRI_12mdviewer_lib9doc_prefs7key_for
FNDA:12,_RNCNvMNtCskXOmkMderRI_12mdviewer_lib9doc_prefsNtB4_13DocPrefsStore4load0B6_
FNDA:13,_RNvMNtCs2DXdqaz45d1_12mdviewer_lib9doc_prefsNtB2_13DocPrefsStore4load
FNDA:13,_RNvMNtCs2DXdqaz45d1_12mdviewer_lib9doc_prefsNtB2_13DocPrefsStore4open
FNDA:5,_RNvMNtCs2DXdqaz45d1_12mdviewer_lib9doc_prefsNtB2_13DocPrefsStore4save
FNDA:2,_RNvMNtCs2DXdqaz45d1_12mdviewer_lib9doc_prefsNtB2_13DocPrefsStore6delete
FNDA:7,_RNvMNtCs2DXdqaz45d1_12mdviewer_lib9doc_prefsNtB2_13DocPrefsStore7persist
FNDA:20,_RNvNtCs2DXdqaz45d1_12mdviewer_lib9doc_prefs7key_for
FNDA:7,_RNCNvMNtCs2DXdqaz45d1_12mdviewer_lib9doc_prefsNtB4_13DocPrefsStore4load0B6_
FNDA:10,_RNvNtNtCs2DXdqaz45d1_12mdviewer_lib9doc_prefs5tests8data_dir
FNDA:1,_RNvNtNtCs2DXdqaz45d1_12mdviewer_lib9doc_prefs5testss_21save_clamps_above_max
FNDA:1,_RNvNtNtCs2DXdqaz45d1_12mdviewer_lib9doc_prefs5testss_21save_clamps_below_min
FNDA:1,_RNvNtNtCs2DXdqaz45d1_12mdviewer_lib9doc_prefs5testss_27round_trip_load_save_delete
FNDA:1,_RNvNtNtCs2DXdqaz45d1_12mdviewer_lib9doc_prefs5testss_28delete_missing_entry_is_noop
FNDA:1,_RNvNtNtCs2DXdqaz45d1_12mdviewer_lib9doc_prefs5testss_30corrupt_file_returns_empty_map
FNDA:1,_RNvNtNtCs2DXdqaz45d1_12mdviewer_lib9doc_prefs5testss_30missing_file_returns_empty_map
FNDA:1,_RNvNtNtCs2DXdqaz45d1_12mdviewer_lib9doc_prefs5testss_34load_clamps_above_range_disk_value
FNDA:1,_RNvNtNtCs2DXdqaz45d1_12mdviewer_lib9doc_prefs5testss_35load_clamps_out_of_range_disk_value
FNDA:1,_RNvNtNtCs2DXdqaz45d1_12mdviewer_lib9doc_prefs5testss_35save_persists_canonical_key_to_disk
FNDA:1,_RNvNtNtCs2DXdqaz45d1_12mdviewer_lib9doc_prefs5testss_42canonical_keying_relative_matches_absolute
FNF:18
FNH:18
DA:66,66
DA:67,66
DA:68,66
DA:69,66
DA:70,13
DA:71,13
DA:72,11
DA:75,11
DA:76,9
DA:77,9
DA:78,11
DA:80,2
DA:81,2
DA:86,2
DA:89,0
DA:90,0
DA:95,0
DA:99,53
DA:101,66
DA:102,66
DA:107,37
DA:108,37
DA:109,37
DA:110,19
DA:111,19
DA:112,19
DA:113,37
DA:119,15
DA:120,15
DA:121,15
DA:122,15
DA:123,15
DA:124,15
DA:129,5
DA:130,5
DA:131,5
DA:132,5
DA:133,5
DA:135,20
DA:136,20
DA:137,20
DA:138,20
DA:139,20
DA:142,57
DA:143,57
DA:144,57
DA:151,10
DA:152,10
DA:153,10
DA:156,1
DA:157,1
DA:158,1
DA:159,1
DA:161,1
DA:162,1
DA:164,1
DA:165,1
DA:166,1
DA:167,1
DA:170,1
DA:171,1
DA:174,1
DA:175,1
DA:176,1
DA:177,1
DA:178,1
DA:179,1
DA:182,1
DA:187,1
DA:188,1
DA:189,1
DA:194,1
DA:196,1
DA:197,1
DA:198,1
DA:199,1
DA:202,1
DA:203,1
DA:204,1
DA:206,1
DA:209,1
DA:210,1
DA:212,1
DA:214,1
DA:215,1
DA:216,1
DA:217,1
DA:220,1
DA:223,1
DA:224,1
DA:226,1
DA:227,1
DA:228,1
DA:229,1
DA:232,1
DA:233,1
DA:234,1
DA:235,1
DA:237,1
DA:238,1
DA:239,1
DA:240,1
DA:241,1
DA:242,1
DA:243,1
DA:246,1
DA:249,1
DA:250,1
DA:251,1
DA:252,1
DA:254,1
DA:255,1
DA:256,1
DA:257,1
DA:258,1
DA:261,1
DA:264,1
DA:267,1
DA:268,1
DA:269,1
DA:270,1
DA:272,1
DA:273,1
DA:274,1
DA:275,1
DA:277,1
DA:279,1
DA:280,1
DA:281,1
DA:282,1
DA:285,1
DA:288,1
DA:289,1
DA:290,1
DA:291,1
DA:292,1
DA:294,1
DA:295,1
DA:296,1
DA:297,1
DA:299,1
DA:301,1
DA:302,1
DA:303,1
DA:304,1
DA:307,1
DA:310,1
DA:311,1
DA:312,1
DA:313,1
DA:315,1
DA:317,1
DA:318,1
DA:319,1
DA:322,1
DA:325,1
DA:326,1
DA:327,1
DA:328,1
DA:330,1
DA:331,1
DA:332,1
DA:333,1
DA:335,1
DA:336,1
DA:337,1
DA:338,1
BRF:0
BRH:0
LF:168
LH:165
end_of_record
SF:/home/ggtest/Work/Claude/MDViewer/.claude/worktrees/mdviewer-android/src-tauri/src/document.rs
FN:73,_RINvNtCskXOmkMderRI_12mdviewer_lib8document13save_documentpEB4_
FN:88,_RNCINvNtCskXOmkMderRI_12mdviewer_lib8document13save_documentpE0B6_
FN:90,_RNCINvNtCskXOmkMderRI_12mdviewer_lib8document13save_documentpEs0_0B6_
FN:89,_RNCINvNtCskXOmkMderRI_12mdviewer_lib8document13save_documentpEs_0B6_
FN:73,_RINvNtCskXOmkMderRI_12mdviewer_lib8document13save_documentNCNvCsfXuJyqQ3OBA_8documents_38save_document_overwrites_existing_file0EBY_
FN:73,_RINvNtCskXOmkMderRI_12mdviewer_lib8document13save_documentNCNvCsfXuJyqQ3OBA_8documents_38save_document_overwrites_existing_files_0EBY_
FN:73,_RINvNtCskXOmkMderRI_12mdviewer_lib8document13save_documentNCNvCsfXuJyqQ3OBA_8documents_48save_document_extensionless_path_uses_tmp_suffix0EBY_
FN:73,_RINvNtCskXOmkMderRI_12mdviewer_lib8document13save_documentNCNvCsfXuJyqQ3OBA_8documents_48save_document_writes_atomically_and_returns_hash0EBY_
FN:88,_RNCINvNtCskXOmkMderRI_12mdviewer_lib8document13save_documentNCNvCsfXuJyqQ3OBA_8documents_38save_document_overwrites_existing_file0E0B10_
FN:90,_RNCINvNtCskXOmkMderRI_12mdviewer_lib8document13save_documentNCNvCsfXuJyqQ3OBA_8documents_38save_document_overwrites_existing_file0Es0_0B10_
FN:89,_RNCINvNtCskXOmkMderRI_12mdviewer_lib8document13save_documentNCNvCsfXuJyqQ3OBA_8documents_38save_document_overwrites_existing_file0Es_0B10_
FN:88,_RNCINvNtCskXOmkMderRI_12mdviewer_lib8document13save_documentNCNvCsfXuJyqQ3OBA_8documents_38save_document_overwrites_existing_files_0E0B10_
FN:90,_RNCINvNtCskXOmkMderRI_12mdviewer_lib8document13save_documentNCNvCsfXuJyqQ3OBA_8documents_38save_document_overwrites_existing_files_0Es0_0B10_
FN:89,_RNCINvNtCskXOmkMderRI_12mdviewer_lib8document13save_documentNCNvCsfXuJyqQ3OBA_8documents_38save_document_overwrites_existing_files_0Es_0B10_
FN:88,_RNCINvNtCskXOmkMderRI_12mdviewer_lib8document13save_documentNCNvCsfXuJyqQ3OBA_8documents_48save_document_extensionless_path_uses_tmp_suffix0E0B10_
FN:90,_RNCINvNtCskXOmkMderRI_12mdviewer_lib8document13save_documentNCNvCsfXuJyqQ3OBA_8documents_48save_document_extensionless_path_uses_tmp_suffix0Es0_0B10_
FN:89,_RNCINvNtCskXOmkMderRI_12mdviewer_lib8document13save_documentNCNvCsfXuJyqQ3OBA_8documents_48save_document_extensionless_path_uses_tmp_suffix0Es_0B10_
FN:88,_RNCINvNtCskXOmkMderRI_12mdviewer_lib8document13save_documentNCNvCsfXuJyqQ3OBA_8documents_48save_document_writes_atomically_and_returns_hash0E0B10_
FN:90,_RNCINvNtCskXOmkMderRI_12mdviewer_lib8document13save_documentNCNvCsfXuJyqQ3OBA_8documents_48save_document_writes_atomically_and_returns_hash0Es0_0B10_
FN:89,_RNCINvNtCskXOmkMderRI_12mdviewer_lib8document13save_documentNCNvCsfXuJyqQ3OBA_8documents_48save_document_writes_atomically_and_returns_hash0Es_0B10_
FN:73,_RINvNtCskXOmkMderRI_12mdviewer_lib8document13save_documentNCNvCs6LdYeyK8eOD_8mdviewer13save_documents1_0EBY_
FN:88,_RNCINvNtCskXOmkMderRI_12mdviewer_lib8document13save_documentNCNvCs6LdYeyK8eOD_8mdviewer13save_documents1_0E0B10_
FN:90,_RNCINvNtCskXOmkMderRI_12mdviewer_lib8document13save_documentNCNvCs6LdYeyK8eOD_8mdviewer13save_documents1_0Es0_0B10_
FN:89,_RNCINvNtCskXOmkMderRI_12mdviewer_lib8document13save_documentNCNvCs6LdYeyK8eOD_8mdviewer13save_documents1_0Es_0B10_
FN:73,_RINvNtCs2DXdqaz45d1_12mdviewer_lib8document13save_documentpEB4_
FN:88,_RNCINvNtCs2DXdqaz45d1_12mdviewer_lib8document13save_documentpE0B6_
FN:90,_RNCINvNtCs2DXdqaz45d1_12mdviewer_lib8document13save_documentpEs0_0B6_
FN:89,_RNCINvNtCs2DXdqaz45d1_12mdviewer_lib8document13save_documentpEs_0B6_
FN:73,_RINvNtCskXOmkMderRI_12mdviewer_lib8document13save_documentNCNvCsjqwjVpUdcgS_7watchers_37save_document_does_not_trigger_reload0EBY_
FN:73,_RINvNtCskXOmkMderRI_12mdviewer_lib8document13save_documentNCNvCsjqwjVpUdcgS_7watchers_40external_write_after_save_still_triggers0EBY_
FN:88,_RNCINvNtCskXOmkMderRI_12mdviewer_lib8document13save_documentNCNvCsjqwjVpUdcgS_7watchers_37save_document_does_not_trigger_reload0E0B10_
FN:90,_RNCINvNtCskXOmkMderRI_12mdviewer_lib8document13save_documentNCNvCsjqwjVpUdcgS_7watchers_37save_document_does_not_trigger_reload0Es0_0B10_
FN:89,_RNCINvNtCskXOmkMderRI_12mdviewer_lib8document13save_documentNCNvCsjqwjVpUdcgS_7watchers_37save_document_does_not_trigger_reload0Es_0B10_
FN:88,_RNCINvNtCskXOmkMderRI_12mdviewer_lib8document13save_documentNCNvCsjqwjVpUdcgS_7watchers_40external_write_after_save_still_triggers0E0B10_
FN:90,_RNCINvNtCskXOmkMderRI_12mdviewer_lib8document13save_documentNCNvCsjqwjVpUdcgS_7watchers_40external_write_after_save_still_triggers0Es0_0B10_
FN:89,_RNCINvNtCskXOmkMderRI_12mdviewer_lib8document13save_documentNCNvCsjqwjVpUdcgS_7watchers_40external_write_after_save_still_triggers0Es_0B10_
FN:73,_RINvNtCskXOmkMderRI_12mdviewer_lib8document13save_documentNCNvCshY2eqBAGZPN_9workspaces_57refresh_tab_reloads_source_render_and_snapshot_after_save0EBY_
FN:88,_RNCINvNtCskXOmkMderRI_12mdviewer_lib8document13save_documentNCNvCshY2eqBAGZPN_9workspaces_57refresh_tab_reloads_source_render_and_snapshot_after_save0E0B10_
FN:90,_RNCINvNtCskXOmkMderRI_12mdviewer_lib8document13save_documentNCNvCshY2eqBAGZPN_9workspaces_57refresh_tab_reloads_source_render_and_snapshot_after_save0Es0_0B10_
FN:89,_RNCINvNtCskXOmkMderRI_12mdviewer_lib8document13save_documentNCNvCshY2eqBAGZPN_9workspaces_57refresh_tab_reloads_source_render_and_snapshot_after_save0Es_0B10_
FNDA:0,_RINvNtCskXOmkMderRI_12mdviewer_lib8document13save_documentpEB4_
FNDA:0,_RNCINvNtCskXOmkMderRI_12mdviewer_lib8document13save_documentpE0B6_
FNDA:0,_RNCINvNtCskXOmkMderRI_12mdviewer_lib8document13save_documentpEs0_0B6_
FNDA:0,_RNCINvNtCskXOmkMderRI_12mdviewer_lib8document13save_documentpEs_0B6_
FNDA:1,_RINvNtCskXOmkMderRI_12mdviewer_lib8document13save_documentNCNvCsfXuJyqQ3OBA_8documents_38save_document_overwrites_existing_file0EBY_
FNDA:1,_RINvNtCskXOmkMderRI_12mdviewer_lib8document13save_documentNCNvCsfXuJyqQ3OBA_8documents_38save_document_overwrites_existing_files_0EBY_
FNDA:1,_RINvNtCskXOmkMderRI_12mdviewer_lib8document13save_documentNCNvCsfXuJyqQ3OBA_8documents_48save_document_extensionless_path_uses_tmp_suffix0EBY_
FNDA:1,_RINvNtCskXOmkMderRI_12mdviewer_lib8document13save_documentNCNvCsfXuJyqQ3OBA_8documents_48save_document_writes_atomically_and_returns_hash0EBY_
FNDA:1,_RNCINvNtCskXOmkMderRI_12mdviewer_lib8document13save_documentNCNvCsfXuJyqQ3OBA_8documents_38save_document_overwrites_existing_file0E0B10_
FNDA:0,_RNCINvNtCskXOmkMderRI_12mdviewer_lib8document13save_documentNCNvCsfXuJyqQ3OBA_8documents_38save_document_overwrites_existing_file0Es0_0B10_
FNDA:1,_RNCINvNtCskXOmkMderRI_12mdviewer_lib8document13save_documentNCNvCsfXuJyqQ3OBA_8documents_38save_document_overwrites_existing_file0Es_0B10_
FNDA:1,_RNCINvNtCskXOmkMderRI_12mdviewer_lib8document13save_documentNCNvCsfXuJyqQ3OBA_8documents_38save_document_overwrites_existing_files_0E0B10_
FNDA:0,_RNCINvNtCskXOmkMderRI_12mdviewer_lib8document13save_documentNCNvCsfXuJyqQ3OBA_8documents_38save_document_overwrites_existing_files_0Es0_0B10_
FNDA:1,_RNCINvNtCskXOmkMderRI_12mdviewer_lib8document13save_documentNCNvCsfXuJyqQ3OBA_8documents_38save_document_overwrites_existing_files_0Es_0B10_
FNDA:0,_RNCINvNtCskXOmkMderRI_12mdviewer_lib8document13save_documentNCNvCsfXuJyqQ3OBA_8documents_48save_document_extensionless_path_uses_tmp_suffix0E0B10_
FNDA:1,_RNCINvNtCskXOmkMderRI_12mdviewer_lib8document13save_documentNCNvCsfXuJyqQ3OBA_8documents_48save_document_extensionless_path_uses_tmp_suffix0Es0_0B10_
FNDA:0,_RNCINvNtCskXOmkMderRI_12mdviewer_lib8document13save_documentNCNvCsfXuJyqQ3OBA_8documents_48save_document_extensionless_path_uses_tmp_suffix0Es_0B10_
FNDA:1,_RNCINvNtCskXOmkMderRI_12mdviewer_lib8document13save_documentNCNvCsfXuJyqQ3OBA_8documents_48save_document_writes_atomically_and_returns_hash0E0B10_
FNDA:0,_RNCINvNtCskXOmkMderRI_12mdviewer_lib8document13save_documentNCNvCsfXuJyqQ3OBA_8documents_48save_document_writes_atomically_and_returns_hash0Es0_0B10_
FNDA:1,_RNCINvNtCskXOmkMderRI_12mdviewer_lib8document13save_documentNCNvCsfXuJyqQ3OBA_8documents_48save_document_writes_atomically_and_returns_hash0Es_0B10_
FNDA:0,_RINvNtCskXOmkMderRI_12mdviewer_lib8document13save_documentNCNvCs6LdYeyK8eOD_8mdviewer13save_documents1_0EBY_
FNDA:0,_RNCINvNtCskXOmkMderRI_12mdviewer_lib8document13save_documentNCNvCs6LdYeyK8eOD_8mdviewer13save_documents1_0E0B10_
FNDA:0,_RNCINvNtCskXOmkMderRI_12mdviewer_lib8document13save_documentNCNvCs6LdYeyK8eOD_8mdviewer13save_documents1_0Es0_0B10_
FNDA:0,_RNCINvNtCskXOmkMderRI_12mdviewer_lib8document13save_documentNCNvCs6LdYeyK8eOD_8mdviewer13save_documents1_0Es_0B10_
FNDA:0,_RINvNtCs2DXdqaz45d1_12mdviewer_lib8document13save_documentpEB4_
FNDA:0,_RNCINvNtCs2DXdqaz45d1_12mdviewer_lib8document13save_documentpE0B6_
FNDA:0,_RNCINvNtCs2DXdqaz45d1_12mdviewer_lib8document13save_documentpEs0_0B6_
FNDA:0,_RNCINvNtCs2DXdqaz45d1_12mdviewer_lib8document13save_documentpEs_0B6_
FNDA:0,_RINvNtCskXOmkMderRI_12mdviewer_lib8document13save_documentNCNvCsjqwjVpUdcgS_7watchers_37save_document_does_not_trigger_reload0EBY_
FNDA:0,_RINvNtCskXOmkMderRI_12mdviewer_lib8document13save_documentNCNvCsjqwjVpUdcgS_7watchers_40external_write_after_save_still_triggers0EBY_
FNDA:0,_RNCINvNtCskXOmkMderRI_12mdviewer_lib8document13save_documentNCNvCsjqwjVpUdcgS_7watchers_37save_document_does_not_trigger_reload0E0B10_
FNDA:0,_RNCINvNtCskXOmkMderRI_12mdviewer_lib8document13save_documentNCNvCsjqwjVpUdcgS_7watchers_37save_document_does_not_trigger_reload0Es0_0B10_
FNDA:0,_RNCINvNtCskXOmkMderRI_12mdviewer_lib8document13save_documentNCNvCsjqwjVpUdcgS_7watchers_37save_document_does_not_trigger_reload0Es_0B10_
FNDA:0,_RNCINvNtCskXOmkMderRI_12mdviewer_lib8document13save_documentNCNvCsjqwjVpUdcgS_7watchers_40external_write_after_save_still_triggers0E0B10_
FNDA:0,_RNCINvNtCskXOmkMderRI_12mdviewer_lib8document13save_documentNCNvCsjqwjVpUdcgS_7watchers_40external_write_after_save_still_triggers0Es0_0B10_
FNDA:0,_RNCINvNtCskXOmkMderRI_12mdviewer_lib8document13save_documentNCNvCsjqwjVpUdcgS_7watchers_40external_write_after_save_still_triggers0Es_0B10_
FNDA:1,_RINvNtCskXOmkMderRI_12mdviewer_lib8document13save_documentNCNvCshY2eqBAGZPN_9workspaces_57refresh_tab_reloads_source_render_and_snapshot_after_save0EBY_
FNDA:1,_RNCINvNtCskXOmkMderRI_12mdviewer_lib8document13save_documentNCNvCshY2eqBAGZPN_9workspaces_57refresh_tab_reloads_source_render_and_snapshot_after_save0E0B10_
FNDA:0,_RNCINvNtCskXOmkMderRI_12mdviewer_lib8document13save_documentNCNvCshY2eqBAGZPN_9workspaces_57refresh_tab_reloads_source_render_and_snapshot_after_save0Es0_0B10_
FNDA:1,_RNCINvNtCskXOmkMderRI_12mdviewer_lib8document13save_documentNCNvCshY2eqBAGZPN_9workspaces_57refresh_tab_reloads_source_render_and_snapshot_after_save0Es_0B10_
FNF:4
FNH:4
DA:73,5
DA:74,5
DA:75,5
DA:76,5
DA:77,5
DA:78,5
DA:79,5
DA:86,5
DA:87,5
DA:88,5
DA:89,5
DA:90,5
DA:93,5
DA:94,5
DA:95,5
DA:99,5
DA:100,5
DA:102,5
DA:108,5
DA:109,5
DA:110,5
DA:111,5
DA:112,5
DA:113,5
DA:114,5
DA:115,0
DA:117,5
DA:118,5
DA:119,5
DA:120,5
DA:121,5
BRF:0
BRH:0
LF:34
LH:33
end_of_record
SF:/home/ggtest/Work/Claude/MDViewer/.claude/worktrees/mdviewer-android/src-tauri/src/drive/api.rs
FN:80,_RNvMNtNtCskXOmkMderRI_12mdviewer_lib5drive3apiNtB2_8DriveApi10with_token
FN:96,_RNvMNtNtCskXOmkMderRI_12mdviewer_lib5drive3apiNtB2_8DriveApi11auth_header
FN:227,_RNvMNtNtCskXOmkMderRI_12mdviewer_lib5drive3apiNtB2_8DriveApi12create_reply
FN:370,_RNvMNtNtCskXOmkMderRI_12mdviewer_lib5drive3apiNtB2_8DriveApi12files_update
FN:144,_RNvMNtNtCskXOmkMderRI_12mdviewer_lib5drive3apiNtB2_8DriveApi13list_comments
FN:324,_RNvMNtNtCskXOmkMderRI_12mdviewer_lib5drive3apiNtB2_8DriveApi13raw_get_media
FN:92,_RNvMNtNtCskXOmkMderRI_12mdviewer_lib5drive3apiNtB2_8DriveApi13replace_token
FN:190,_RNvMNtNtCskXOmkMderRI_12mdviewer_lib5drive3apiNtB2_8DriveApi14create_comment
FN:212,_RNvMNtNtCskXOmkMderRI_12mdviewer_lib5drive3apiNtB2_8DriveApi14delete_comment
FN:255,_RNvMNtNtCskXOmkMderRI_12mdviewer_lib5drive3apiNtB2_8DriveApi14files_list_raw
FN:341,_RNvMNtNtCskXOmkMderRI_12mdviewer_lib5drive3apiNtB2_8DriveApi15raw_patch_media
FN:266,_RNvMNtNtCskXOmkMderRI_12mdviewer_lib5drive3apiNtB2_8DriveApi16list_permissions
FN:305,_RNvMNtNtCskXOmkMderRI_12mdviewer_lib5drive3apiNtB2_8DriveApi18files_get_metadata
FN:404,_RNvNtNtCskXOmkMderRI_12mdviewer_lib5drive3api20parse_error_envelope
FN:100,_RINvMNtNtCskXOmkMderRI_12mdviewer_lib5drive3apiNtB3_8DriveApi15send_with_retryNCNvB2_12create_reply0EB7_
FN:100,_RINvMNtNtCskXOmkMderRI_12mdviewer_lib5drive3apiNtB3_8DriveApi15send_with_retryNCNvB2_12files_update0EB7_
FN:100,_RINvMNtNtCskXOmkMderRI_12mdviewer_lib5drive3apiNtB3_8DriveApi15send_with_retryNCNvB2_13list_comments0EB7_
FN:100,_RINvMNtNtCskXOmkMderRI_12mdviewer_lib5drive3apiNtB3_8DriveApi15send_with_retryNCNvB2_13raw_get_media0EB7_
FN:100,_RINvMNtNtCskXOmkMderRI_12mdviewer_lib5drive3apiNtB3_8DriveApi15send_with_retryNCNvB2_14create_comment0EB7_
FN:100,_RINvMNtNtCskXOmkMderRI_12mdviewer_lib5drive3apiNtB3_8DriveApi15send_with_retryNCNvB2_14delete_comment0EB7_
FN:100,_RINvMNtNtCskXOmkMderRI_12mdviewer_lib5drive3apiNtB3_8DriveApi15send_with_retryNCNvB2_14files_list_raw0EB7_
FN:100,_RINvMNtNtCskXOmkMderRI_12mdviewer_lib5drive3apiNtB3_8DriveApi15send_with_retryNCNvB2_15raw_patch_media0EB7_
FN:100,_RINvMNtNtCskXOmkMderRI_12mdviewer_lib5drive3apiNtB3_8DriveApi15send_with_retryNCNvB2_16list_permissions0EB7_
FN:100,_RINvMNtNtCskXOmkMderRI_12mdviewer_lib5drive3apiNtB3_8DriveApi15send_with_retryNCNvB2_18files_get_metadata0EB7_
FN:141,_RNCINvMNtNtCskXOmkMderRI_12mdviewer_lib5drive3apiNtB5_8DriveApi15send_with_retryNCNvB4_12create_reply0E0B9_
FN:141,_RNCINvMNtNtCskXOmkMderRI_12mdviewer_lib5drive3apiNtB5_8DriveApi15send_with_retryNCNvB4_12files_update0E0B9_
FN:141,_RNCINvMNtNtCskXOmkMderRI_12mdviewer_lib5drive3apiNtB5_8DriveApi15send_with_retryNCNvB4_13list_comments0E0B9_
FN:141,_RNCINvMNtNtCskXOmkMderRI_12mdviewer_lib5drive3apiNtB5_8DriveApi15send_with_retryNCNvB4_13raw_get_media0E0B9_
FN:141,_RNCINvMNtNtCskXOmkMderRI_12mdviewer_lib5drive3apiNtB5_8DriveApi15send_with_retryNCNvB4_14create_comment0E0B9_
FN:141,_RNCINvMNtNtCskXOmkMderRI_12mdviewer_lib5drive3apiNtB5_8DriveApi15send_with_retryNCNvB4_14delete_comment0E0B9_
FN:141,_RNCINvMNtNtCskXOmkMderRI_12mdviewer_lib5drive3apiNtB5_8DriveApi15send_with_retryNCNvB4_14files_list_raw0E0B9_
FN:141,_RNCINvMNtNtCskXOmkMderRI_12mdviewer_lib5drive3apiNtB5_8DriveApi15send_with_retryNCNvB4_15raw_patch_media0E0B9_
FN:141,_RNCINvMNtNtCskXOmkMderRI_12mdviewer_lib5drive3apiNtB5_8DriveApi15send_with_retryNCNvB4_16list_permissions0E0B9_
FN:141,_RNCINvMNtNtCskXOmkMderRI_12mdviewer_lib5drive3apiNtB5_8DriveApi15send_with_retryNCNvB4_18files_get_metadata0E0B9_
FN:83,_RNCNvMNtNtCskXOmkMderRI_12mdviewer_lib5drive3apiNtB4_8DriveApi10with_token0B8_
FN:238,_RNCNvMNtNtCskXOmkMderRI_12mdviewer_lib5drive3apiNtB4_8DriveApi12create_reply0B8_
FN:248,_RNCNvMNtNtCskXOmkMderRI_12mdviewer_lib5drive3apiNtB4_8DriveApi12create_replys_0B8_
FN:377,_RNCNvMNtNtCskXOmkMderRI_12mdviewer_lib5drive3apiNtB4_8DriveApi12files_update0B8_
FN:389,_RNCNvMNtNtCskXOmkMderRI_12mdviewer_lib5drive3apiNtB4_8DriveApi12files_updates_0B8_
FN:152,_RNCNvMNtNtCskXOmkMderRI_12mdviewer_lib5drive3apiNtB4_8DriveApi13list_comments0B8_
FN:185,_RNCNvMNtNtCskXOmkMderRI_12mdviewer_lib5drive3apiNtB4_8DriveApi13list_commentss0_0B8_
FN:181,_RNCNvMNtNtCskXOmkMderRI_12mdviewer_lib5drive3apiNtB4_8DriveApi13list_commentss_0B8_
FN:329,_RNCNvMNtNtCskXOmkMderRI_12mdviewer_lib5drive3apiNtB4_8DriveApi13raw_get_media0B8_
FN:199,_RNCNvMNtNtCskXOmkMderRI_12mdviewer_lib5drive3apiNtB4_8DriveApi14create_comment0B8_
FN:209,_RNCNvMNtNtCskXOmkMderRI_12mdviewer_lib5drive3apiNtB4_8DriveApi14create_comments_0B8_
FN:223,_RNCNvMNtNtCskXOmkMderRI_12mdviewer_lib5drive3apiNtB4_8DriveApi14delete_comment0B8_
FN:257,_RNCNvMNtNtCskXOmkMderRI_12mdviewer_lib5drive3apiNtB4_8DriveApi14files_list_raw0B8_
FN:263,_RNCNvMNtNtCskXOmkMderRI_12mdviewer_lib5drive3apiNtB4_8DriveApi14files_list_raws_0B8_
FN:351,_RNCNvMNtNtCskXOmkMderRI_12mdviewer_lib5drive3apiNtB4_8DriveApi15raw_patch_media0B8_
FN:362,_RNCNvMNtNtCskXOmkMderRI_12mdviewer_lib5drive3apiNtB4_8DriveApi15raw_patch_medias0_0B8_
FN:360,_RNCNvMNtNtCskXOmkMderRI_12mdviewer_lib5drive3apiNtB4_8DriveApi15raw_patch_medias_0B8_
FN:285,_RNCNvMNtNtCskXOmkMderRI_12mdviewer_lib5drive3apiNtB4_8DriveApi16list_permissions0B8_
FN:296,_RNCNvMNtNtCskXOmkMderRI_12mdviewer_lib5drive3apiNtB4_8DriveApi16list_permissionss0_0B8_
FN:292,_RNCNvMNtNtCskXOmkMderRI_12mdviewer_lib5drive3apiNtB4_8DriveApi16list_permissionss_0B8_
FN:310,_RNCNvMNtNtCskXOmkMderRI_12mdviewer_lib5drive3apiNtB4_8DriveApi18files_get_metadata0B8_
FN:316,_RNCNvMNtNtCskXOmkMderRI_12mdviewer_lib5drive3apiNtB4_8DriveApi18files_get_metadatas_0B8_
FN:83,_RNCNvMNtNtCs2DXdqaz45d1_12mdviewer_lib5drive3apiNtB4_8DriveApi10with_token0B8_
FN:377,_RNCNvMNtNtCs2DXdqaz45d1_12mdviewer_lib5drive3apiNtB4_8DriveApi12files_update0B8_
FN:389,_RNCNvMNtNtCs2DXdqaz45d1_12mdviewer_lib5drive3apiNtB4_8DriveApi12files_updates_0B8_
FN:329,_RNCNvMNtNtCs2DXdqaz45d1_12mdviewer_lib5drive3apiNtB4_8DriveApi13raw_get_media0B8_
FN:257,_RNCNvMNtNtCs2DXdqaz45d1_12mdviewer_lib5drive3apiNtB4_8DriveApi14files_list_raw0B8_
FN:263,_RNCNvMNtNtCs2DXdqaz45d1_12mdviewer_lib5drive3apiNtB4_8DriveApi14files_list_raws_0B8_
FN:351,_RNCNvMNtNtCs2DXdqaz45d1_12mdviewer_lib5drive3apiNtB4_8DriveApi15raw_patch_media0B8_
FN:362,_RNCNvMNtNtCs2DXdqaz45d1_12mdviewer_lib5drive3apiNtB4_8DriveApi15raw_patch_medias0_0B8_
FN:360,_RNCNvMNtNtCs2DXdqaz45d1_12mdviewer_lib5drive3apiNtB4_8DriveApi15raw_patch_medias_0B8_
FN:285,_RNCNvMNtNtCs2DXdqaz45d1_12mdviewer_lib5drive3apiNtB4_8DriveApi16list_permissions0B8_
FN:296,_RNCNvMNtNtCs2DXdqaz45d1_12mdviewer_lib5drive3apiNtB4_8DriveApi16list_permissionss0_0B8_
FN:292,_RNCNvMNtNtCs2DXdqaz45d1_12mdviewer_lib5drive3apiNtB4_8DriveApi16list_permissionss_0B8_
FN:310,_RNCNvMNtNtCs2DXdqaz45d1_12mdviewer_lib5drive3apiNtB4_8DriveApi18files_get_metadata0B8_
FN:316,_RNCNvMNtNtCs2DXdqaz45d1_12mdviewer_lib5drive3apiNtB4_8DriveApi18files_get_metadatas_0B8_
FN:80,_RNvMNtNtCs2DXdqaz45d1_12mdviewer_lib5drive3apiNtB2_8DriveApi10with_token
FN:370,_RNvMNtNtCs2DXdqaz45d1_12mdviewer_lib5drive3apiNtB2_8DriveApi12files_update
FN:324,_RNvMNtNtCs2DXdqaz45d1_12mdviewer_lib5drive3apiNtB2_8DriveApi13raw_get_media
FN:92,_RNvMNtNtCs2DXdqaz45d1_12mdviewer_lib5drive3apiNtB2_8DriveApi13replace_token
FN:255,_RNvMNtNtCs2DXdqaz45d1_12mdviewer_lib5drive3apiNtB2_8DriveApi14files_list_raw
FN:341,_RNvMNtNtCs2DXdqaz45d1_12mdviewer_lib5drive3apiNtB2_8DriveApi15raw_patch_media
FN:266,_RNvMNtNtCs2DXdqaz45d1_12mdviewer_lib5drive3apiNtB2_8DriveApi16list_permissions
FN:305,_RNvMNtNtCs2DXdqaz45d1_12mdviewer_lib5drive3apiNtB2_8DriveApi18files_get_metadata
FN:100,_RINvMNtNtCs2DXdqaz45d1_12mdviewer_lib5drive3apiNtB3_8DriveApi15send_with_retryNCNvB2_12create_reply0EB7_
FN:100,_RINvMNtNtCs2DXdqaz45d1_12mdviewer_lib5drive3apiNtB3_8DriveApi15send_with_retryNCNvB2_13list_comments0EB7_
FN:100,_RINvMNtNtCs2DXdqaz45d1_12mdviewer_lib5drive3apiNtB3_8DriveApi15send_with_retryNCNvB2_14create_comment0EB7_
FN:100,_RINvMNtNtCs2DXdqaz45d1_12mdviewer_lib5drive3apiNtB3_8DriveApi15send_with_retryNCNvB2_14delete_comment0EB7_
FN:141,_RNCINvMNtNtCs2DXdqaz45d1_12mdviewer_lib5drive3apiNtB5_8DriveApi15send_with_retryNCNvB4_12create_reply0E0B9_
FN:141,_RNCINvMNtNtCs2DXdqaz45d1_12mdviewer_lib5drive3apiNtB5_8DriveApi15send_with_retryNCNvB4_13list_comments0E0B9_
FN:141,_RNCINvMNtNtCs2DXdqaz45d1_12mdviewer_lib5drive3apiNtB5_8DriveApi15send_with_retryNCNvB4_14create_comment0E0B9_
FN:141,_RNCINvMNtNtCs2DXdqaz45d1_12mdviewer_lib5drive3apiNtB5_8DriveApi15send_with_retryNCNvB4_14delete_comment0E0B9_
FN:238,_RNCNvMNtNtCs2DXdqaz45d1_12mdviewer_lib5drive3apiNtB4_8DriveApi12create_reply0B8_
FN:248,_RNCNvMNtNtCs2DXdqaz45d1_12mdviewer_lib5drive3apiNtB4_8DriveApi12create_replys_0B8_
FN:152,_RNCNvMNtNtCs2DXdqaz45d1_12mdviewer_lib5drive3apiNtB4_8DriveApi13list_comments0B8_
FN:185,_RNCNvMNtNtCs2DXdqaz45d1_12mdviewer_lib5drive3apiNtB4_8DriveApi13list_commentss0_0B8_
FN:181,_RNCNvMNtNtCs2DXdqaz45d1_12mdviewer_lib5drive3apiNtB4_8DriveApi13list_commentss_0B8_
FN:199,_RNCNvMNtNtCs2DXdqaz45d1_12mdviewer_lib5drive3apiNtB4_8DriveApi14create_comment0B8_
FN:209,_RNCNvMNtNtCs2DXdqaz45d1_12mdviewer_lib5drive3apiNtB4_8DriveApi14create_comments_0B8_
FN:223,_RNCNvMNtNtCs2DXdqaz45d1_12mdviewer_lib5drive3apiNtB4_8DriveApi14delete_comment0B8_
FN:96,_RNvMNtNtCs2DXdqaz45d1_12mdviewer_lib5drive3apiNtB2_8DriveApi11auth_header
FN:227,_RNvMNtNtCs2DXdqaz45d1_12mdviewer_lib5drive3apiNtB2_8DriveApi12create_reply
FN:144,_RNvMNtNtCs2DXdqaz45d1_12mdviewer_lib5drive3apiNtB2_8DriveApi13list_comments
FN:190,_RNvMNtNtCs2DXdqaz45d1_12mdviewer_lib5drive3apiNtB2_8DriveApi14create_comment
FN:212,_RNvMNtNtCs2DXdqaz45d1_12mdviewer_lib5drive3apiNtB2_8DriveApi14delete_comment
FN:404,_RNvNtNtCs2DXdqaz45d1_12mdviewer_lib5drive3api20parse_error_envelope
FNDA:20,_RNvMNtNtCskXOmkMderRI_12mdviewer_lib5drive3apiNtB2_8DriveApi10with_token
FNDA:24,_RNvMNtNtCskXOmkMderRI_12mdviewer_lib5drive3apiNtB2_8DriveApi11auth_header
FNDA:0,_RNvMNtNtCskXOmkMderRI_12mdviewer_lib5drive3apiNtB2_8DriveApi12create_reply
FNDA:0,_RNvMNtNtCskXOmkMderRI_12mdviewer_lib5drive3apiNtB2_8DriveApi12files_update
FNDA:8,_RNvMNtNtCskXOmkMderRI_12mdviewer_lib5drive3apiNtB2_8DriveApi13list_comments
FNDA:4,_RNvMNtNtCskXOmkMderRI_12mdviewer_lib5drive3apiNtB2_8DriveApi13raw_get_media
FNDA:0,_RNvMNtNtCskXOmkMderRI_12mdviewer_lib5drive3apiNtB2_8DriveApi13replace_token
FNDA:4,_RNvMNtNtCskXOmkMderRI_12mdviewer_lib5drive3apiNtB2_8DriveApi14create_comment
FNDA:0,_RNvMNtNtCskXOmkMderRI_12mdviewer_lib5drive3apiNtB2_8DriveApi14delete_comment
FNDA:0,_RNvMNtNtCskXOmkMderRI_12mdviewer_lib5drive3apiNtB2_8DriveApi14files_list_raw
FNDA:3,_RNvMNtNtCskXOmkMderRI_12mdviewer_lib5drive3apiNtB2_8DriveApi15raw_patch_media
FNDA:1,_RNvMNtNtCskXOmkMderRI_12mdviewer_lib5drive3apiNtB2_8DriveApi16list_permissions
FNDA:2,_RNvMNtNtCskXOmkMderRI_12mdviewer_lib5drive3apiNtB2_8DriveApi18files_get_metadata
FNDA:2,_RNvNtNtCskXOmkMderRI_12mdviewer_lib5drive3api20parse_error_envelope
FNDA:0,_RINvMNtNtCskXOmkMderRI_12mdviewer_lib5drive3apiNtB3_8DriveApi15send_with_retryNCNvB2_12create_reply0EB7_
FNDA:0,_RINvMNtNtCskXOmkMderRI_12mdviewer_lib5drive3apiNtB3_8DriveApi15send_with_retryNCNvB2_12files_update0EB7_
FNDA:8,_RINvMNtNtCskXOmkMderRI_12mdviewer_lib5drive3apiNtB3_8DriveApi15send_with_retryNCNvB2_13list_comments0EB7_
FNDA:4,_RINvMNtNtCskXOmkMderRI_12mdviewer_lib5drive3apiNtB3_8DriveApi15send_with_retryNCNvB2_13raw_get_media0EB7_
FNDA:4,_RINvMNtNtCskXOmkMderRI_12mdviewer_lib5drive3apiNtB3_8DriveApi15send_with_retryNCNvB2_14create_comment0EB7_
FNDA:0,_RINvMNtNtCskXOmkMderRI_12mdviewer_lib5drive3apiNtB3_8DriveApi15send_with_retryNCNvB2_14delete_comment0EB7_
FNDA:0,_RINvMNtNtCskXOmkMderRI_12mdviewer_lib5drive3apiNtB3_8DriveApi15send_with_retryNCNvB2_14files_list_raw0EB7_
FNDA:3,_RINvMNtNtCskXOmkMderRI_12mdviewer_lib5drive3apiNtB3_8DriveApi15send_with_retryNCNvB2_15raw_patch_media0EB7_
FNDA:1,_RINvMNtNtCskXOmkMderRI_12mdviewer_lib5drive3apiNtB3_8DriveApi15send_with_retryNCNvB2_16list_permissions0EB7_
FNDA:2,_RINvMNtNtCskXOmkMderRI_12mdviewer_lib5drive3apiNtB3_8DriveApi15send_with_retryNCNvB2_18files_get_metadata0EB7_
FNDA:0,_RNCINvMNtNtCskXOmkMderRI_12mdviewer_lib5drive3apiNtB5_8DriveApi15send_with_retryNCNvB4_12create_reply0E0B9_
FNDA:0,_RNCINvMNtNtCskXOmkMderRI_12mdviewer_lib5drive3apiNtB5_8DriveApi15send_with_retryNCNvB4_12files_update0E0B9_
FNDA:0,_RNCINvMNtNtCskXOmkMderRI_12mdviewer_lib5drive3apiNtB5_8DriveApi15send_with_retryNCNvB4_13list_comments0E0B9_
FNDA:0,_RNCINvMNtNtCskXOmkMderRI_12mdviewer_lib5drive3apiNtB5_8DriveApi15send_with_retryNCNvB4_13raw_get_media0E0B9_
FNDA:0,_RNCINvMNtNtCskXOmkMderRI_12mdviewer_lib5drive3apiNtB5_8DriveApi15send_with_retryNCNvB4_14create_comment0E0B9_
FNDA:0,_RNCINvMNtNtCskXOmkMderRI_12mdviewer_lib5drive3apiNtB5_8DriveApi15send_with_retryNCNvB4_14delete_comment0E0B9_
FNDA:0,_RNCINvMNtNtCskXOmkMderRI_12mdviewer_lib5drive3apiNtB5_8DriveApi15send_with_retryNCNvB4_14files_list_raw0E0B9_
FNDA:0,_RNCINvMNtNtCskXOmkMderRI_12mdviewer_lib5drive3apiNtB5_8DriveApi15send_with_retryNCNvB4_15raw_patch_media0E0B9_
FNDA:0,_RNCINvMNtNtCskXOmkMderRI_12mdviewer_lib5drive3apiNtB5_8DriveApi15send_with_retryNCNvB4_16list_permissions0E0B9_
FNDA:0,_RNCINvMNtNtCskXOmkMderRI_12mdviewer_lib5drive3apiNtB5_8DriveApi15send_with_retryNCNvB4_18files_get_metadata0E0B9_
FNDA:4,_RNCNvMNtNtCskXOmkMderRI_12mdviewer_lib5drive3apiNtB4_8DriveApi10with_token0B8_
FNDA:0,_RNCNvMNtNtCskXOmkMderRI_12mdviewer_lib5drive3apiNtB4_8DriveApi12create_reply0B8_
FNDA:0,_RNCNvMNtNtCskXOmkMderRI_12mdviewer_lib5drive3apiNtB4_8DriveApi12create_replys_0B8_
FNDA:0,_RNCNvMNtNtCskXOmkMderRI_12mdviewer_lib5drive3apiNtB4_8DriveApi12files_update0B8_
FNDA:0,_RNCNvMNtNtCskXOmkMderRI_12mdviewer_lib5drive3apiNtB4_8DriveApi12files_updates_0B8_
FNDA:10,_RNCNvMNtNtCskXOmkMderRI_12mdviewer_lib5drive3apiNtB4_8DriveApi13list_comments0B8_
FNDA:0,_RNCNvMNtNtCskXOmkMderRI_12mdviewer_lib5drive3apiNtB4_8DriveApi13list_commentss0_0B8_
FNDA:2,_RNCNvMNtNtCskXOmkMderRI_12mdviewer_lib5drive3apiNtB4_8DriveApi13list_commentss_0B8_
FNDA:4,_RNCNvMNtNtCskXOmkMderRI_12mdviewer_lib5drive3apiNtB4_8DriveApi13raw_get_media0B8_
FNDA:4,_RNCNvMNtNtCskXOmkMderRI_12mdviewer_lib5drive3apiNtB4_8DriveApi14create_comment0B8_
FNDA:0,_RNCNvMNtNtCskXOmkMderRI_12mdviewer_lib5drive3apiNtB4_8DriveApi14create_comments_0B8_
FNDA:0,_RNCNvMNtNtCskXOmkMderRI_12mdviewer_lib5drive3apiNtB4_8DriveApi14delete_comment0B8_
FNDA:0,_RNCNvMNtNtCskXOmkMderRI_12mdviewer_lib5drive3apiNtB4_8DriveApi14files_list_raw0B8_
FNDA:0,_RNCNvMNtNtCskXOmkMderRI_12mdviewer_lib5drive3apiNtB4_8DriveApi14files_list_raws_0B8_
FNDA:3,_RNCNvMNtNtCskXOmkMderRI_12mdviewer_lib5drive3apiNtB4_8DriveApi15raw_patch_media0B8_
FNDA:0,_RNCNvMNtNtCskXOmkMderRI_12mdviewer_lib5drive3apiNtB4_8DriveApi15raw_patch_medias0_0B8_
FNDA:1,_RNCNvMNtNtCskXOmkMderRI_12mdviewer_lib5drive3apiNtB4_8DriveApi15raw_patch_medias_0B8_
FNDA:1,_RNCNvMNtNtCskXOmkMderRI_12mdviewer_lib5drive3apiNtB4_8DriveApi16list_permissions0B8_
FNDA:2,_RNCNvMNtNtCskXOmkMderRI_12mdviewer_lib5drive3apiNtB4_8DriveApi16list_permissionss0_0B8_
FNDA:0,_RNCNvMNtNtCskXOmkMderRI_12mdviewer_lib5drive3apiNtB4_8DriveApi16list_permissionss_0B8_
FNDA:2,_RNCNvMNtNtCskXOmkMderRI_12mdviewer_lib5drive3apiNtB4_8DriveApi18files_get_metadata0B8_
FNDA:0,_RNCNvMNtNtCskXOmkMderRI_12mdviewer_lib5drive3apiNtB4_8DriveApi18files_get_metadatas_0B8_
FNDA:0,_RNCNvMNtNtCs2DXdqaz45d1_12mdviewer_lib5drive3apiNtB4_8DriveApi10with_token0B8_
FNDA:0,_RNCNvMNtNtCs2DXdqaz45d1_12mdviewer_lib5drive3apiNtB4_8DriveApi12files_update0B8_
FNDA:0,_RNCNvMNtNtCs2DXdqaz45d1_12mdviewer_lib5drive3apiNtB4_8DriveApi12files_updates_0B8_
FNDA:0,_RNCNvMNtNtCs2DXdqaz45d1_12mdviewer_lib5drive3apiNtB4_8DriveApi13raw_get_media0B8_
FNDA:0,_RNCNvMNtNtCs2DXdqaz45d1_12mdviewer_lib5drive3apiNtB4_8DriveApi14files_list_raw0B8_
FNDA:0,_RNCNvMNtNtCs2DXdqaz45d1_12mdviewer_lib5drive3apiNtB4_8DriveApi14files_list_raws_0B8_
FNDA:0,_RNCNvMNtNtCs2DXdqaz45d1_12mdviewer_lib5drive3apiNtB4_8DriveApi15raw_patch_media0B8_
FNDA:0,_RNCNvMNtNtCs2DXdqaz45d1_12mdviewer_lib5drive3apiNtB4_8DriveApi15raw_patch_medias0_0B8_
FNDA:0,_RNCNvMNtNtCs2DXdqaz45d1_12mdviewer_lib5drive3apiNtB4_8DriveApi15raw_patch_medias_0B8_
FNDA:0,_RNCNvMNtNtCs2DXdqaz45d1_12mdviewer_lib5drive3apiNtB4_8DriveApi16list_permissions0B8_
FNDA:0,_RNCNvMNtNtCs2DXdqaz45d1_12mdviewer_lib5drive3apiNtB4_8DriveApi16list_permissionss0_0B8_
FNDA:0,_RNCNvMNtNtCs2DXdqaz45d1_12mdviewer_lib5drive3apiNtB4_8DriveApi16list_permissionss_0B8_
FNDA:0,_RNCNvMNtNtCs2DXdqaz45d1_12mdviewer_lib5drive3apiNtB4_8DriveApi18files_get_metadata0B8_
FNDA:0,_RNCNvMNtNtCs2DXdqaz45d1_12mdviewer_lib5drive3apiNtB4_8DriveApi18files_get_metadatas_0B8_
FNDA:0,_RNvMNtNtCs2DXdqaz45d1_12mdviewer_lib5drive3apiNtB2_8DriveApi10with_token
FNDA:0,_RNvMNtNtCs2DXdqaz45d1_12mdviewer_lib5drive3apiNtB2_8DriveApi12files_update
FNDA:0,_RNvMNtNtCs2DXdqaz45d1_12mdviewer_lib5drive3apiNtB2_8DriveApi13raw_get_media
FNDA:0,_RNvMNtNtCs2DXdqaz45d1_12mdviewer_lib5drive3apiNtB2_8DriveApi13replace_token
FNDA:0,_RNvMNtNtCs2DXdqaz45d1_12mdviewer_lib5drive3apiNtB2_8DriveApi14files_list_raw
FNDA:0,_RNvMNtNtCs2DXdqaz45d1_12mdviewer_lib5drive3apiNtB2_8DriveApi15raw_patch_media
FNDA:0,_RNvMNtNtCs2DXdqaz45d1_12mdviewer_lib5drive3apiNtB2_8DriveApi16list_permissions
FNDA:0,_RNvMNtNtCs2DXdqaz45d1_12mdviewer_lib5drive3apiNtB2_8DriveApi18files_get_metadata
FNDA:0,_RINvMNtNtCs2DXdqaz45d1_12mdviewer_lib5drive3apiNtB3_8DriveApi15send_with_retryNCNvB2_12create_reply0EB7_
FNDA:0,_RINvMNtNtCs2DXdqaz45d1_12mdviewer_lib5drive3apiNtB3_8DriveApi15send_with_retryNCNvB2_13list_comments0EB7_
FNDA:0,_RINvMNtNtCs2DXdqaz45d1_12mdviewer_lib5drive3apiNtB3_8DriveApi15send_with_retryNCNvB2_14create_comment0EB7_
FNDA:0,_RINvMNtNtCs2DXdqaz45d1_12mdviewer_lib5drive3apiNtB3_8DriveApi15send_with_retryNCNvB2_14delete_comment0EB7_
FNDA:0,_RNCINvMNtNtCs2DXdqaz45d1_12mdviewer_lib5drive3apiNtB5_8DriveApi15send_with_retryNCNvB4_12create_reply0E0B9_
FNDA:0,_RNCINvMNtNtCs2DXdqaz45d1_12mdviewer_lib5drive3apiNtB5_8DriveApi15send_with_retryNCNvB4_13list_comments0E0B9_
FNDA:0,_RNCINvMNtNtCs2DXdqaz45d1_12mdviewer_lib5drive3apiNtB5_8DriveApi15send_with_retryNCNvB4_14create_comment0E0B9_
FNDA:0,_RNCINvMNtNtCs2DXdqaz45d1_12mdviewer_lib5drive3apiNtB5_8DriveApi15send_with_retryNCNvB4_14delete_comment0E0B9_
FNDA:0,_RNCNvMNtNtCs2DXdqaz45d1_12mdviewer_lib5drive3apiNtB4_8DriveApi12create_reply0B8_
FNDA:0,_RNCNvMNtNtCs2DXdqaz45d1_12mdviewer_lib5drive3apiNtB4_8DriveApi12create_replys_0B8_
FNDA:0,_RNCNvMNtNtCs2DXdqaz45d1_12mdviewer_lib5drive3apiNtB4_8DriveApi13list_comments0B8_
FNDA:0,_RNCNvMNtNtCs2DXdqaz45d1_12mdviewer_lib5drive3apiNtB4_8DriveApi13list_commentss0_0B8_
FNDA:0,_RNCNvMNtNtCs2DXdqaz45d1_12mdviewer_lib5drive3apiNtB4_8DriveApi13list_commentss_0B8_
FNDA:0,_RNCNvMNtNtCs2DXdqaz45d1_12mdviewer_lib5drive3apiNtB4_8DriveApi14create_comment0B8_
FNDA:0,_RNCNvMNtNtCs2DXdqaz45d1_12mdviewer_lib5drive3apiNtB4_8DriveApi14create_comments_0B8_
FNDA:0,_RNCNvMNtNtCs2DXdqaz45d1_12mdviewer_lib5drive3apiNtB4_8DriveApi14delete_comment0B8_
FNDA:0,_RNvMNtNtCs2DXdqaz45d1_12mdviewer_lib5drive3apiNtB2_8DriveApi11auth_header
FNDA:0,_RNvMNtNtCs2DXdqaz45d1_12mdviewer_lib5drive3apiNtB2_8DriveApi12create_reply
FNDA:0,_RNvMNtNtCs2DXdqaz45d1_12mdviewer_lib5drive3apiNtB2_8DriveApi13list_comments
FNDA:0,_RNvMNtNtCs2DXdqaz45d1_12mdviewer_lib5drive3apiNtB2_8DriveApi14create_comment
FNDA:0,_RNvMNtNtCs2DXdqaz45d1_12mdviewer_lib5drive3apiNtB2_8DriveApi14delete_comment
FNDA:0,_RNvNtNtCs2DXdqaz45d1_12mdviewer_lib5drive3api20parse_error_envelope
FNF:38
FNH:20
DA:80,20
DA:82,20
DA:83,20
DA:84,20
DA:85,20
DA:86,20
DA:87,20
DA:88,20
DA:90,20
DA:92,0
DA:93,0
DA:94,0
DA:96,24
DA:97,24
DA:98,24
DA:100,22
DA:101,22
DA:102,22
DA:103,22
DA:104,22
DA:105,22
DA:107,22
DA:108,22
DA:109,24
DA:110,24
DA:111,24
DA:112,24
DA:113,24
DA:114,24
DA:115,24
DA:116,24
DA:117,16
DA:118,8
DA:122,8
DA:123,2
DA:124,6
DA:125,6
DA:126,2
DA:127,4
DA:128,4
DA:129,2
DA:130,2
DA:132,2
DA:134,0
DA:136,2
DA:137,2
DA:138,2
DA:139,2
DA:141,0
DA:142,22
DA:144,8
DA:145,8
DA:146,8
DA:147,8
DA:148,8
DA:150,8
DA:152,10
DA:153,10
DA:154,10
DA:155,10
DA:156,10
DA:157,10
DA:158,1
DA:159,9
DA:160,10
DA:161,2
DA:162,8
DA:163,10
DA:164,10
DA:167,7
DA:168,2
DA:169,2
DA:170,2
DA:171,2
DA:172,2
DA:173,5
DA:178,5
DA:179,5
DA:180,5
DA:181,5
DA:182,5
DA:183,5
DA:184,5
DA:185,5
DA:186,5
DA:187,5
DA:188,8
DA:190,4
DA:191,4
DA:192,4
DA:193,4
DA:194,4
DA:195,4
DA:197,4
DA:199,4
DA:200,4
DA:201,4
DA:202,4
DA:203,4
DA:204,4
DA:205,4
DA:206,4
DA:207,4
DA:208,3
DA:209,3
DA:210,4
DA:212,0
DA:213,0
DA:214,0
DA:215,0
DA:216,0
DA:217,0
DA:219,0
DA:220,0
DA:222,0
DA:223,0
DA:224,0
DA:225,0
DA:227,0
DA:228,0
DA:229,0
DA:230,0
DA:231,0
DA:232,0
DA:233,0
DA:235,0
DA:236,0
DA:238,0
DA:239,0
DA:240,0
DA:241,0
DA:242,0
DA:243,0
DA:244,0
DA:245,0
DA:246,0
DA:247,0
DA:248,0
DA:249,0
DA:255,0
DA:256,0
DA:257,0
DA:258,0
DA:259,0
DA:260,0
DA:261,0
DA:262,0
DA:263,0
DA:264,0
DA:266,1
DA:267,1
DA:268,1
DA:269,1
DA:270,1
DA:272,1
DA:285,1
DA:286,1
DA:287,1
DA:288,1
DA:289,1
DA:290,1
DA:291,1
DA:292,1
DA:293,1
DA:294,1
DA:295,1
DA:296,2
DA:298,2
DA:299,2
DA:301,2
DA:302,1
DA:303,1
DA:305,2
DA:306,2
DA:307,2
DA:308,2
DA:309,2
DA:310,2
DA:311,2
DA:312,2
DA:313,2
DA:314,2
DA:315,2
DA:316,2
DA:317,2
DA:324,4
DA:325,4
DA:326,4
DA:327,4
DA:328,4
DA:329,4
DA:330,4
DA:331,4
DA:332,4
DA:333,4
DA:334,4
DA:341,3
DA:342,3
DA:343,3
DA:344,3
DA:345,3
DA:346,3
DA:347,3
DA:349,3
DA:351,3
DA:352,3
DA:353,3
DA:354,3
DA:355,3
DA:356,3
DA:357,3
DA:358,1
DA:359,1
DA:360,1
DA:361,1
DA:362,1
DA:363,3
DA:370,0
DA:371,0
DA:372,0
DA:373,0
DA:374,0
DA:375,0
DA:376,0
DA:377,0
DA:378,0
DA:379,0
DA:380,0
DA:381,0
DA:382,0
DA:383,0
DA:384,0
DA:385,0
DA:386,0
DA:387,0
DA:388,0
DA:389,0
DA:390,0
DA:404,2
DA:414,2
DA:415,2
DA:416,2
DA:417,2
DA:418,2
DA:419,2
DA:420,0
DA:422,2
BRF:0
BRH:0
LF:278
LH:189
end_of_record
SF:/home/ggtest/Work/Claude/MDViewer/.claude/worktrees/mdviewer-android/src-tauri/src/drive/auth.rs
FN:177,_RINvNtNtCskXOmkMderRI_12mdviewer_lib5drive4auth17run_loopback_flowNCNvNtB6_9workspace16make_test_opener0EB6_
FN:177,_RINvNtNtCskXOmkMderRI_12mdviewer_lib5drive4auth17run_loopback_flowNvNtB6_9workspace16default_open_urlEB6_
FN:183,_RNCINvNtNtCskXOmkMderRI_12mdviewer_lib5drive4auth17run_loopback_flowNCNvNtB8_9workspace16make_test_opener0E0B8_
FN:199,_RNCINvNtNtCskXOmkMderRI_12mdviewer_lib5drive4auth17run_loopback_flowNCNvNtB8_9workspace16make_test_opener0Es0_0B8_
FN:212,_RNCINvNtNtCskXOmkMderRI_12mdviewer_lib5drive4auth17run_loopback_flowNCNvNtB8_9workspace16make_test_opener0Es1_0B8_
FN:187,_RNCINvNtNtCskXOmkMderRI_12mdviewer_lib5drive4auth17run_loopback_flowNCNvNtB8_9workspace16make_test_opener0Es_0B8_
FN:183,_RNCINvNtNtCskXOmkMderRI_12mdviewer_lib5drive4auth17run_loopback_flowNvNtB8_9workspace16default_open_urlE0B8_
FN:199,_RNCINvNtNtCskXOmkMderRI_12mdviewer_lib5drive4auth17run_loopback_flowNvNtB8_9workspace16default_open_urlEs0_0B8_
FN:212,_RNCINvNtNtCskXOmkMderRI_12mdviewer_lib5drive4auth17run_loopback_flowNvNtB8_9workspace16default_open_urlEs1_0B8_
FN:187,_RNCINvNtNtCskXOmkMderRI_12mdviewer_lib5drive4auth17run_loopback_flowNvNtB8_9workspace16default_open_urlEs_0B8_
FN:95,_RNCNvMs_NtNtCskXOmkMderRI_12mdviewer_lib5drive4authNtB6_11AuthBuilder23build_authorization_url0Ba_
FN:231,_RNCNvNtNtCskXOmkMderRI_12mdviewer_lib5drive4auth13exchange_code0B7_
FN:249,_RNCNvNtNtCskXOmkMderRI_12mdviewer_lib5drive4auth13exchange_codes0_0B7_
FN:244,_RNCNvNtNtCskXOmkMderRI_12mdviewer_lib5drive4auth13exchange_codes_0B7_
FN:82,_RNvMs_NtNtCskXOmkMderRI_12mdviewer_lib5drive4authNtB4_11AuthBuilder13redirect_port
FN:76,_RNvMs_NtNtCskXOmkMderRI_12mdviewer_lib5drive4authNtB4_11AuthBuilder18resolved_client_id
FN:63,_RNvMs_NtNtCskXOmkMderRI_12mdviewer_lib5drive4authNtB4_11AuthBuilder18with_byo_client_id
FN:68,_RNvMs_NtNtCskXOmkMderRI_12mdviewer_lib5drive4authNtB4_11AuthBuilder18with_redirect_port
FN:58,_RNvMs_NtNtCskXOmkMderRI_12mdviewer_lib5drive4authNtB4_11AuthBuilder22with_default_client_id
FN:86,_RNvMs_NtNtCskXOmkMderRI_12mdviewer_lib5drive4authNtB4_11AuthBuilder23build_authorization_url
FN:48,_RNvMs_NtNtCskXOmkMderRI_12mdviewer_lib5drive4authNtB4_11AuthBuilder3new
FN:137,_RNvNtNtCskXOmkMderRI_12mdviewer_lib5drive4auth12random_state
FN:225,_RNvNtNtCskXOmkMderRI_12mdviewer_lib5drive4auth13exchange_code
FN:161,_RNvNtNtCskXOmkMderRI_12mdviewer_lib5drive4auth27extract_email_from_id_token
FN:127,_RNvNtNtCskXOmkMderRI_12mdviewer_lib5drive4auth9pkce_pair
FN:42,_RNvXNtNtCskXOmkMderRI_12mdviewer_lib5drive4authNtB2_11AuthBuilderNtNtCsgEmfK2I1SDS_4core7default7Default7default
FN:177,_RINvNtNtCs2DXdqaz45d1_12mdviewer_lib5drive4auth17run_loopback_flowpEB6_
FN:183,_RNCINvNtNtCs2DXdqaz45d1_12mdviewer_lib5drive4auth17run_loopback_flowpE0B8_
FN:199,_RNCINvNtNtCs2DXdqaz45d1_12mdviewer_lib5drive4auth17run_loopback_flowpEs0_0B8_
FN:212,_RNCINvNtNtCs2DXdqaz45d1_12mdviewer_lib5drive4auth17run_loopback_flowpEs1_0B8_
FN:187,_RNCINvNtNtCs2DXdqaz45d1_12mdviewer_lib5drive4auth17run_loopback_flowpEs_0B8_
FN:95,_RNCNvMs_NtNtCs2DXdqaz45d1_12mdviewer_lib5drive4authNtB6_11AuthBuilder23build_authorization_url0Ba_
FN:231,_RNCNvNtNtCs2DXdqaz45d1_12mdviewer_lib5drive4auth13exchange_code0B7_
FN:249,_RNCNvNtNtCs2DXdqaz45d1_12mdviewer_lib5drive4auth13exchange_codes0_0B7_
FN:244,_RNCNvNtNtCs2DXdqaz45d1_12mdviewer_lib5drive4auth13exchange_codes_0B7_
FN:82,_RNvMs_NtNtCs2DXdqaz45d1_12mdviewer_lib5drive4authNtB4_11AuthBuilder13redirect_port
FN:76,_RNvMs_NtNtCs2DXdqaz45d1_12mdviewer_lib5drive4authNtB4_11AuthBuilder18resolved_client_id
FN:63,_RNvMs_NtNtCs2DXdqaz45d1_12mdviewer_lib5drive4authNtB4_11AuthBuilder18with_byo_client_id
FN:68,_RNvMs_NtNtCs2DXdqaz45d1_12mdviewer_lib5drive4authNtB4_11AuthBuilder18with_redirect_port
FN:58,_RNvMs_NtNtCs2DXdqaz45d1_12mdviewer_lib5drive4authNtB4_11AuthBuilder22with_default_client_id
FN:86,_RNvMs_NtNtCs2DXdqaz45d1_12mdviewer_lib5drive4authNtB4_11AuthBuilder23build_authorization_url
FN:48,_RNvMs_NtNtCs2DXdqaz45d1_12mdviewer_lib5drive4authNtB4_11AuthBuilder3new
FN:137,_RNvNtNtCs2DXdqaz45d1_12mdviewer_lib5drive4auth12random_state
FN:225,_RNvNtNtCs2DXdqaz45d1_12mdviewer_lib5drive4auth13exchange_code
FN:161,_RNvNtNtCs2DXdqaz45d1_12mdviewer_lib5drive4auth27extract_email_from_id_token
FN:127,_RNvNtNtCs2DXdqaz45d1_12mdviewer_lib5drive4auth9pkce_pair
FN:42,_RNvXNtNtCs2DXdqaz45d1_12mdviewer_lib5drive4authNtB2_11AuthBuilderNtNtCsgEmfK2I1SDS_4core7default7Default7default
FNDA:4,_RINvNtNtCskXOmkMderRI_12mdviewer_lib5drive4auth17run_loopback_flowNCNvNtB6_9workspace16make_test_opener0EB6_
FNDA:0,_RINvNtNtCskXOmkMderRI_12mdviewer_lib5drive4auth17run_loopback_flowNvNtB6_9workspace16default_open_urlEB6_
FNDA:0,_RNCINvNtNtCskXOmkMderRI_12mdviewer_lib5drive4auth17run_loopback_flowNCNvNtB8_9workspace16make_test_opener0E0B8_
FNDA:0,_RNCINvNtNtCskXOmkMderRI_12mdviewer_lib5drive4auth17run_loopback_flowNCNvNtB8_9workspace16make_test_opener0Es0_0B8_
FNDA:0,_RNCINvNtNtCskXOmkMderRI_12mdviewer_lib5drive4auth17run_loopback_flowNCNvNtB8_9workspace16make_test_opener0Es1_0B8_
FNDA:4,_RNCINvNtNtCskXOmkMderRI_12mdviewer_lib5drive4auth17run_loopback_flowNCNvNtB8_9workspace16make_test_opener0Es_0B8_
FNDA:0,_RNCINvNtNtCskXOmkMderRI_12mdviewer_lib5drive4auth17run_loopback_flowNvNtB8_9workspace16default_open_urlE0B8_
FNDA:0,_RNCINvNtNtCskXOmkMderRI_12mdviewer_lib5drive4auth17run_loopback_flowNvNtB8_9workspace16default_open_urlEs0_0B8_
FNDA:0,_RNCINvNtNtCskXOmkMderRI_12mdviewer_lib5drive4auth17run_loopback_flowNvNtB8_9workspace16default_open_urlEs1_0B8_
FNDA:0,_RNCINvNtNtCskXOmkMderRI_12mdviewer_lib5drive4auth17run_loopback_flowNvNtB8_9workspace16default_open_urlEs_0B8_
FNDA:2,_RNCNvMs_NtNtCskXOmkMderRI_12mdviewer_lib5drive4authNtB6_11AuthBuilder23build_authorization_url0Ba_
FNDA:0,_RNCNvNtNtCskXOmkMderRI_12mdviewer_lib5drive4auth13exchange_code0B7_
FNDA:0,_RNCNvNtNtCskXOmkMderRI_12mdviewer_lib5drive4auth13exchange_codes0_0B7_
FNDA:0,_RNCNvNtNtCskXOmkMderRI_12mdviewer_lib5drive4auth13exchange_codes_0B7_
FNDA:4,_RNvMs_NtNtCskXOmkMderRI_12mdviewer_lib5drive4authNtB4_11AuthBuilder13redirect_port
FNDA:14,_RNvMs_NtNtCskXOmkMderRI_12mdviewer_lib5drive4authNtB4_11AuthBuilder18resolved_client_id
FNDA:2,_RNvMs_NtNtCskXOmkMderRI_12mdviewer_lib5drive4authNtB4_11AuthBuilder18with_byo_client_id
FNDA:6,_RNvMs_NtNtCskXOmkMderRI_12mdviewer_lib5drive4authNtB4_11AuthBuilder18with_redirect_port
FNDA:2,_RNvMs_NtNtCskXOmkMderRI_12mdviewer_lib5drive4authNtB4_11AuthBuilder22with_default_client_id
FNDA:6,_RNvMs_NtNtCskXOmkMderRI_12mdviewer_lib5drive4authNtB4_11AuthBuilder23build_authorization_url
FNDA:6,_RNvMs_NtNtCskXOmkMderRI_12mdviewer_lib5drive4authNtB4_11AuthBuilder3new
FNDA:6,_RNvNtNtCskXOmkMderRI_12mdviewer_lib5drive4auth12random_state
FNDA:4,_RNvNtNtCskXOmkMderRI_12mdviewer_lib5drive4auth13exchange_code
FNDA:5,_RNvNtNtCskXOmkMderRI_12mdviewer_lib5drive4auth27extract_email_from_id_token
FNDA:6,_RNvNtNtCskXOmkMderRI_12mdviewer_lib5drive4auth9pkce_pair
FNDA:0,_RNvXNtNtCskXOmkMderRI_12mdviewer_lib5drive4authNtB2_11AuthBuilderNtNtCsgEmfK2I1SDS_4core7default7Default7default
FNDA:0,_RINvNtNtCs2DXdqaz45d1_12mdviewer_lib5drive4auth17run_loopback_flowpEB6_
FNDA:0,_RNCINvNtNtCs2DXdqaz45d1_12mdviewer_lib5drive4auth17run_loopback_flowpE0B8_
FNDA:0,_RNCINvNtNtCs2DXdqaz45d1_12mdviewer_lib5drive4auth17run_loopback_flowpEs0_0B8_
FNDA:0,_RNCINvNtNtCs2DXdqaz45d1_12mdviewer_lib5drive4auth17run_loopback_flowpEs1_0B8_
FNDA:0,_RNCINvNtNtCs2DXdqaz45d1_12mdviewer_lib5drive4auth17run_loopback_flowpEs_0B8_
FNDA:0,_RNCNvMs_NtNtCs2DXdqaz45d1_12mdviewer_lib5drive4authNtB6_11AuthBuilder23build_authorization_url0Ba_
FNDA:0,_RNCNvNtNtCs2DXdqaz45d1_12mdviewer_lib5drive4auth13exchange_code0B7_
FNDA:0,_RNCNvNtNtCs2DXdqaz45d1_12mdviewer_lib5drive4auth13exchange_codes0_0B7_
FNDA:0,_RNCNvNtNtCs2DXdqaz45d1_12mdviewer_lib5drive4auth13exchange_codes_0B7_
FNDA:0,_RNvMs_NtNtCs2DXdqaz45d1_12mdviewer_lib5drive4authNtB4_11AuthBuilder13redirect_port
FNDA:0,_RNvMs_NtNtCs2DXdqaz45d1_12mdviewer_lib5drive4authNtB4_11AuthBuilder18resolved_client_id
FNDA:0,_RNvMs_NtNtCs2DXdqaz45d1_12mdviewer_lib5drive4authNtB4_11AuthBuilder18with_byo_client_id
FNDA:0,_RNvMs_NtNtCs2DXdqaz45d1_12mdviewer_lib5drive4authNtB4_11AuthBuilder18with_redirect_port
FNDA:0,_RNvMs_NtNtCs2DXdqaz45d1_12mdviewer_lib5drive4authNtB4_11AuthBuilder22with_default_client_id
FNDA:0,_RNvMs_NtNtCs2DXdqaz45d1_12mdviewer_lib5drive4authNtB4_11AuthBuilder23build_authorization_url
FNDA:0,_RNvMs_NtNtCs2DXdqaz45d1_12mdviewer_lib5drive4authNtB4_11AuthBuilder3new
FNDA:0,_RNvNtNtCs2DXdqaz45d1_12mdviewer_lib5drive4auth12random_state
FNDA:0,_RNvNtNtCs2DXdqaz45d1_12mdviewer_lib5drive4auth13exchange_code
FNDA:0,_RNvNtNtCs2DXdqaz45d1_12mdviewer_lib5drive4auth27extract_email_from_id_token
FNDA:0,_RNvNtNtCs2DXdqaz45d1_12mdviewer_lib5drive4auth9pkce_pair
FNDA:0,_RNvXNtNtCs2DXdqaz45d1_12mdviewer_lib5drive4authNtB2_11AuthBuilderNtNtCsgEmfK2I1SDS_4core7default7Default7default
FNF:21
FNH:14
DA:42,0
DA:43,0
DA:44,0
DA:48,6
DA:49,6
DA:50,6
DA:51,6
DA:52,6
DA:53,6
DA:54,6
DA:55,6
DA:56,6
DA:58,2
DA:59,2
DA:60,2
DA:61,2
DA:63,2
DA:64,2
DA:65,2
DA:66,2
DA:68,6
DA:69,6
DA:70,6
DA:71,6
DA:76,14
DA:77,14
DA:78,14
DA:79,14
DA:80,14
DA:82,4
DA:83,4
DA:84,4
DA:86,6
DA:87,6
DA:88,6
DA:89,6
DA:94,6
DA:95,6
DA:96,6
DA:97,6
DA:98,6
DA:99,6
DA:100,6
DA:101,6
DA:102,6
DA:103,6
DA:104,6
DA:105,6
DA:106,6
DA:107,6
DA:108,6
DA:109,6
DA:110,6
DA:111,6
DA:112,6
DA:113,6
DA:114,6
DA:115,6
DA:127,6
DA:128,6
DA:129,6
DA:130,6
DA:132,6
DA:133,6
DA:134,6
DA:135,6
DA:137,6
DA:138,6
DA:139,6
DA:140,6
DA:141,6
DA:161,5
DA:162,5
DA:163,5
DA:164,5
DA:165,5
DA:166,5
DA:167,5
DA:168,5
DA:177,4
DA:178,4
DA:179,4
DA:180,4
DA:181,4
DA:182,4
DA:183,4
DA:184,4
DA:185,4
DA:186,4
DA:187,4
DA:188,4
DA:189,4
DA:190,4
DA:191,4
DA:193,4
DA:194,4
DA:195,4
DA:196,4
DA:197,4
DA:198,4
DA:199,4
DA:200,4
DA:201,4
DA:202,4
DA:203,0
DA:204,0
DA:205,0
DA:206,0
DA:207,0
DA:208,4
DA:209,4
DA:210,4
DA:211,4
DA:212,4
DA:213,4
DA:214,4
DA:215,4
DA:216,4
DA:218,0
DA:219,0
DA:222,0
DA:223,4
DA:225,4
DA:226,4
DA:227,4
DA:228,4
DA:229,4
DA:230,4
DA:231,4
DA:232,4
DA:233,4
DA:234,4
DA:235,4
DA:236,4
DA:237,4
DA:238,4
DA:239,4
DA:240,4
DA:241,4
DA:242,4
DA:243,4
DA:244,4
DA:245,4
DA:246,0
DA:247,4
DA:248,4
DA:249,4
DA:250,4
BRF:0
BRH:0
LF:156
LH:138
end_of_record
SF:/home/ggtest/Work/Claude/MDViewer/.claude/worktrees/mdviewer-android/src-tauri/src/drive/cache.rs
FN:40,_RNvNtNtCskXOmkMderRI_12mdviewer_lib5drive5cache15cache_meta_path
FN:64,_RNvNtNtCskXOmkMderRI_12mdviewer_lib5drive5cache15load_cache_meta
FN:51,_RNvNtNtCskXOmkMderRI_12mdviewer_lib5drive5cache15save_cache_meta
FN:68,_RNCNvNtNtCskXOmkMderRI_12mdviewer_lib5drive5cache15load_cache_meta0B7_
FN:40,_RNvNtNtCs2DXdqaz45d1_12mdviewer_lib5drive5cache15cache_meta_path
FN:64,_RNvNtNtCs2DXdqaz45d1_12mdviewer_lib5drive5cache15load_cache_meta
FN:51,_RNvNtNtCs2DXdqaz45d1_12mdviewer_lib5drive5cache15save_cache_meta
FN:68,_RNCNvNtNtCs2DXdqaz45d1_12mdviewer_lib5drive5cache15load_cache_meta0B7_
FNDA:15,_RNvNtNtCskXOmkMderRI_12mdviewer_lib5drive5cache15cache_meta_path
FNDA:9,_RNvNtNtCskXOmkMderRI_12mdviewer_lib5drive5cache15load_cache_meta
FNDA:6,_RNvNtNtCskXOmkMderRI_12mdviewer_lib5drive5cache15save_cache_meta
FNDA:4,_RNCNvNtNtCskXOmkMderRI_12mdviewer_lib5drive5cache15load_cache_meta0B7_
FNDA:0,_RNvNtNtCs2DXdqaz45d1_12mdviewer_lib5drive5cache15cache_meta_path
FNDA:0,_RNvNtNtCs2DXdqaz45d1_12mdviewer_lib5drive5cache15load_cache_meta
FNDA:0,_RNvNtNtCs2DXdqaz45d1_12mdviewer_lib5drive5cache15save_cache_meta
FNDA:0,_RNCNvNtNtCs2DXdqaz45d1_12mdviewer_lib5drive5cache15load_cache_meta0B7_
FNF:4
FNH:4
DA:40,15
DA:41,15
DA:42,15
DA:43,15
DA:44,15
DA:45,15
DA:46,15
DA:51,6
DA:52,6
DA:53,6
DA:54,6
DA:55,6
DA:56,6
DA:57,6
DA:58,6
DA:59,6
DA:64,9
DA:65,9
DA:66,9
DA:67,9
DA:68,9
DA:69,9
BRF:0
BRH:0
LF:23
LH:23
end_of_record
SF:/home/ggtest/Work/Claude/MDViewer/.claude/worktrees/mdviewer-android/src-tauri/src/drive/comments.rs
FN:142,_RNvNtNtCskXOmkMderRI_12mdviewer_lib5drive8comments11id_map_path
FN:155,_RNvNtNtCskXOmkMderRI_12mdviewer_lib5drive8comments11load_id_map
FN:168,_RNvNtNtCskXOmkMderRI_12mdviewer_lib5drive8comments11save_id_map
FN:32,_RNvNtNtCskXOmkMderRI_12mdviewer_lib5drive8comments16to_drive_comment
FN:73,_RNvNtNtCskXOmkMderRI_12mdviewer_lib5drive8comments18from_drive_comment
FN:90,_RNCNCNvNtNtCskXOmkMderRI_12mdviewer_lib5drive8comments18from_drive_comments_00B9_
FN:92,_RNCNCNvNtNtCskXOmkMderRI_12mdviewer_lib5drive8comments18from_drive_comments_0s0_0B9_
FN:91,_RNCNCNvNtNtCskXOmkMderRI_12mdviewer_lib5drive8comments18from_drive_comments_0s_0B9_
FN:159,_RNCNvNtNtCskXOmkMderRI_12mdviewer_lib5drive8comments11load_id_map0B7_
FN:36,_RNCNvNtNtCskXOmkMderRI_12mdviewer_lib5drive8comments16to_drive_comment0B7_
FN:53,_RNCNvNtNtCskXOmkMderRI_12mdviewer_lib5drive8comments16to_drive_comments0_0B7_
FN:43,_RNCNvNtNtCskXOmkMderRI_12mdviewer_lib5drive8comments16to_drive_comments_0B7_
FN:77,_RNCNvNtNtCskXOmkMderRI_12mdviewer_lib5drive8comments18from_drive_comment0B7_
FN:87,_RNCNvNtNtCskXOmkMderRI_12mdviewer_lib5drive8comments18from_drive_comments_0B7_
FN:159,_RNCNvNtNtCs2DXdqaz45d1_12mdviewer_lib5drive8comments11load_id_map0B7_
FN:36,_RNCNvNtNtCs2DXdqaz45d1_12mdviewer_lib5drive8comments16to_drive_comment0B7_
FN:53,_RNCNvNtNtCs2DXdqaz45d1_12mdviewer_lib5drive8comments16to_drive_comments0_0B7_
FN:43,_RNCNvNtNtCs2DXdqaz45d1_12mdviewer_lib5drive8comments16to_drive_comments_0B7_
FN:142,_RNvNtNtCs2DXdqaz45d1_12mdviewer_lib5drive8comments11id_map_path
FN:155,_RNvNtNtCs2DXdqaz45d1_12mdviewer_lib5drive8comments11load_id_map
FN:168,_RNvNtNtCs2DXdqaz45d1_12mdviewer_lib5drive8comments11save_id_map
FN:32,_RNvNtNtCs2DXdqaz45d1_12mdviewer_lib5drive8comments16to_drive_comment
FN:73,_RNvNtNtCs2DXdqaz45d1_12mdviewer_lib5drive8comments18from_drive_comment
FN:90,_RNCNCNvNtNtCs2DXdqaz45d1_12mdviewer_lib5drive8comments18from_drive_comments_00B9_
FN:92,_RNCNCNvNtNtCs2DXdqaz45d1_12mdviewer_lib5drive8comments18from_drive_comments_0s0_0B9_
FN:91,_RNCNCNvNtNtCs2DXdqaz45d1_12mdviewer_lib5drive8comments18from_drive_comments_0s_0B9_
FN:77,_RNCNvNtNtCs2DXdqaz45d1_12mdviewer_lib5drive8comments18from_drive_comment0B7_
FN:87,_RNCNvNtNtCs2DXdqaz45d1_12mdviewer_lib5drive8comments18from_drive_comments_0B7_
FNDA:3,_RNvNtNtCskXOmkMderRI_12mdviewer_lib5drive8comments11id_map_path
FNDA:2,_RNvNtNtCskXOmkMderRI_12mdviewer_lib5drive8comments11load_id_map
FNDA:1,_RNvNtNtCskXOmkMderRI_12mdviewer_lib5drive8comments11save_id_map
FNDA:1,_RNvNtNtCskXOmkMderRI_12mdviewer_lib5drive8comments16to_drive_comment
FNDA:6,_RNvNtNtCskXOmkMderRI_12mdviewer_lib5drive8comments18from_drive_comment
FNDA:5,_RNCNCNvNtNtCskXOmkMderRI_12mdviewer_lib5drive8comments18from_drive_comments_00B9_
FNDA:5,_RNCNCNvNtNtCskXOmkMderRI_12mdviewer_lib5drive8comments18from_drive_comments_0s0_0B9_
FNDA:2,_RNCNCNvNtNtCskXOmkMderRI_12mdviewer_lib5drive8comments18from_drive_comments_0s_0B9_
FNDA:1,_RNCNvNtNtCskXOmkMderRI_12mdviewer_lib5drive8comments11load_id_map0B7_
FNDA:1,_RNCNvNtNtCskXOmkMderRI_12mdviewer_lib5drive8comments16to_drive_comment0B7_
FNDA:1,_RNCNvNtNtCskXOmkMderRI_12mdviewer_lib5drive8comments16to_drive_comments0_0B7_
FNDA:0,_RNCNvNtNtCskXOmkMderRI_12mdviewer_lib5drive8comments16to_drive_comments_0B7_
FNDA:5,_RNCNvNtNtCskXOmkMderRI_12mdviewer_lib5drive8comments18from_drive_comment0B7_
FNDA:7,_RNCNvNtNtCskXOmkMderRI_12mdviewer_lib5drive8comments18from_drive_comments_0B7_
FNDA:0,_RNCNvNtNtCs2DXdqaz45d1_12mdviewer_lib5drive8comments11load_id_map0B7_
FNDA:0,_RNCNvNtNtCs2DXdqaz45d1_12mdviewer_lib5drive8comments16to_drive_comment0B7_
FNDA:0,_RNCNvNtNtCs2DXdqaz45d1_12mdviewer_lib5drive8comments16to_drive_comments0_0B7_
FNDA:0,_RNCNvNtNtCs2DXdqaz45d1_12mdviewer_lib5drive8comments16to_drive_comments_0B7_
FNDA:0,_RNvNtNtCs2DXdqaz45d1_12mdviewer_lib5drive8comments11id_map_path
FNDA:0,_RNvNtNtCs2DXdqaz45d1_12mdviewer_lib5drive8comments11load_id_map
FNDA:0,_RNvNtNtCs2DXdqaz45d1_12mdviewer_lib5drive8comments11save_id_map
FNDA:0,_RNvNtNtCs2DXdqaz45d1_12mdviewer_lib5drive8comments16to_drive_comment
FNDA:0,_RNvNtNtCs2DXdqaz45d1_12mdviewer_lib5drive8comments18from_drive_comment
FNDA:0,_RNCNCNvNtNtCs2DXdqaz45d1_12mdviewer_lib5drive8comments18from_drive_comments_00B9_
FNDA:0,_RNCNCNvNtNtCs2DXdqaz45d1_12mdviewer_lib5drive8comments18from_drive_comments_0s0_0B9_
FNDA:0,_RNCNCNvNtNtCs2DXdqaz45d1_12mdviewer_lib5drive8comments18from_drive_comments_0s_0B9_
FNDA:0,_RNCNvNtNtCs2DXdqaz45d1_12mdviewer_lib5drive8comments18from_drive_comment0B7_
FNDA:0,_RNCNvNtNtCs2DXdqaz45d1_12mdviewer_lib5drive8comments18from_drive_comments_0B7_
FNF:14
FNH:13
DA:32,1
DA:33,1
DA:34,1
DA:35,1
DA:36,1
DA:37,1
DA:38,1
DA:39,1
DA:40,1
DA:41,1
DA:42,1
DA:43,0
DA:44,0
DA:45,0
DA:46,0
DA:47,0
DA:48,0
DA:49,0
DA:50,0
DA:51,1
DA:53,1
DA:54,1
DA:55,1
DA:56,1
DA:57,1
DA:58,1
DA:59,1
DA:60,1
DA:61,1
DA:63,1
DA:73,6
DA:74,6
DA:75,6
DA:76,6
DA:77,6
DA:78,6
DA:79,6
DA:80,6
DA:81,6
DA:82,6
DA:83,6
DA:84,6
DA:85,6
DA:86,6
DA:87,7
DA:88,7
DA:89,7
DA:90,7
DA:91,7
DA:92,7
DA:93,7
DA:94,7
DA:95,6
DA:96,6
DA:97,6
DA:98,6
DA:99,6
DA:100,6
DA:101,6
DA:102,6
DA:103,6
DA:104,6
DA:105,6
DA:106,1
DA:107,1
DA:108,1
DA:109,1
DA:110,1
DA:111,1
DA:112,1
DA:113,1
DA:114,1
DA:115,1
DA:116,1
DA:117,6
DA:118,6
DA:119,6
DA:120,6
DA:121,6
DA:122,6
DA:123,6
DA:124,6
DA:125,6
DA:142,3
DA:143,3
DA:144,3
DA:145,3
DA:146,3
DA:147,3
DA:148,3
DA:155,2
DA:156,2
DA:157,2
DA:158,2
DA:159,2
DA:160,2
DA:161,2
DA:168,1
DA:169,1
DA:170,1
DA:171,1
DA:172,1
BRF:0
BRH:0
LF:110
LH:102
end_of_record
SF:/home/ggtest/Work/Claude/MDViewer/.claude/worktrees/mdviewer-android/src-tauri/src/drive/detect.rs
FN:26,_RNvMNtNtCskXOmkMderRI_12mdviewer_lib5drive6detectNtB2_9MountKind3new
FN:23,_RNvMNtNtCskXOmkMderRI_12mdviewer_lib5drive6detectNtB2_9MountKind6as_str
FN:31,_RNvNtNtCskXOmkMderRI_12mdviewer_lib5drive6detect21is_drive_desktop_path
FN:26,_RNvMNtNtCs2DXdqaz45d1_12mdviewer_lib5drive6detectNtB2_9MountKind3new
FN:23,_RNvMNtNtCs2DXdqaz45d1_12mdviewer_lib5drive6detectNtB2_9MountKind6as_str
FN:31,_RNvNtNtCs2DXdqaz45d1_12mdviewer_lib5drive6detect21is_drive_desktop_path
FNDA:12,_RNvMNtNtCskXOmkMderRI_12mdviewer_lib5drive6detectNtB2_9MountKind3new
FNDA:7,_RNvMNtNtCskXOmkMderRI_12mdviewer_lib5drive6detectNtB2_9MountKind6as_str
FNDA:17,_RNvNtNtCskXOmkMderRI_12mdviewer_lib5drive6detect21is_drive_desktop_path
FNDA:0,_RNvMNtNtCs2DXdqaz45d1_12mdviewer_lib5drive6detectNtB2_9MountKind3new
FNDA:0,_RNvMNtNtCs2DXdqaz45d1_12mdviewer_lib5drive6detectNtB2_9MountKind6as_str
FNDA:0,_RNvNtNtCs2DXdqaz45d1_12mdviewer_lib5drive6detect21is_drive_desktop_path
FNF:3
FNH:3
DA:23,7
DA:24,7
DA:25,7
DA:26,12
DA:27,12
DA:28,12
DA:31,17
DA:32,17
DA:33,17
DA:34,17
DA:35,17
DA:43,17
DA:44,3
DA:45,3
DA:46,3
DA:47,1
DA:48,1
DA:49,1
DA:50,1
DA:51,2
DA:52,0
DA:53,14
DA:55,16
DA:56,16
DA:57,16
DA:58,8
DA:59,8
DA:60,8
DA:61,6
DA:62,6
DA:63,6
DA:64,6
DA:65,6
DA:66,6
DA:67,6
DA:68,0
DA:69,2
DA:70,0
DA:71,2
DA:72,1
DA:73,1
DA:74,1
DA:75,1
DA:76,1
DA:77,1
DA:79,8
DA:83,5
DA:84,5
DA:85,5
DA:86,4
DA:87,4
DA:89,4
DA:90,4
DA:91,1
DA:92,1
DA:93,1
DA:94,1
DA:95,1
DA:96,3
DA:97,1
DA:98,0
DA:102,4
DA:103,4
DA:104,4
DA:105,4
DA:106,3
DA:107,3
DA:108,3
DA:109,3
DA:110,1
DA:111,0
DA:112,1
DA:114,3
DA:116,17
BRF:0
BRH:0
LF:74
LH:69
end_of_record
SF:/home/ggtest/Work/Claude/MDViewer/.claude/worktrees/mdviewer-android/src-tauri/src/drive/file_id.rs
FN:97,_RINvNtNtCskXOmkMderRI_12mdviewer_lib5drive7file_id15resolve_file_idNtNvMs_NtB6_9workspaceNtB1a_9Workspace18drive_resolve_path10ApiBackendEB6_
FN:104,_RNCINvNtNtCskXOmkMderRI_12mdviewer_lib5drive7file_id15resolve_file_idNtNvMs_NtB8_9workspaceNtB1c_9Workspace18drive_resolve_path10ApiBackendE0B8_
FN:108,_RNCINvNtNtCskXOmkMderRI_12mdviewer_lib5drive7file_id15resolve_file_idNtNvMs_NtB8_9workspaceNtB1c_9Workspace18drive_resolve_path10ApiBackendEs0_0B8_
FN:121,_RNCINvNtNtCskXOmkMderRI_12mdviewer_lib5drive7file_id15resolve_file_idNtNvMs_NtB8_9workspaceNtB1c_9Workspace18drive_resolve_path10ApiBackendEs1_0B8_
FN:127,_RNCINvNtNtCskXOmkMderRI_12mdviewer_lib5drive7file_id15resolve_file_idNtNvMs_NtB8_9workspaceNtB1c_9Workspace18drive_resolve_path10ApiBackendEs2_0B8_
FN:107,_RNCINvNtNtCskXOmkMderRI_12mdviewer_lib5drive7file_id15resolve_file_idNtNvMs_NtB8_9workspaceNtB1c_9Workspace18drive_resolve_path10ApiBackendEs_0B8_
FN:89,_RNCNvXs_NtNtCskXOmkMderRI_12mdviewer_lib5drive7file_idNtB6_14FileIdResolverNtB6_13FileIdBackend10files_list0Ba_
FN:64,_RNvMNtNtCskXOmkMderRI_12mdviewer_lib5drive7file_idNtB2_14FileIdResolver14with_responses
FN:73,_RNvMNtNtCskXOmkMderRI_12mdviewer_lib5drive7file_idNtB2_14FileIdResolver5calls
FN:79,_RNvXs_NtNtCskXOmkMderRI_12mdviewer_lib5drive7file_idNtB4_14FileIdResolverNtB4_13FileIdBackend10files_list
FN:97,_RINvNtNtCskXOmkMderRI_12mdviewer_lib5drive7file_id15resolve_file_idNtB2_14FileIdResolverECsdI9gn6vuHgo_12drive_detect
FN:104,_RNCINvNtNtCskXOmkMderRI_12mdviewer_lib5drive7file_id15resolve_file_idNtB4_14FileIdResolverE0CsdI9gn6vuHgo_12drive_detect
FN:108,_RNCINvNtNtCskXOmkMderRI_12mdviewer_lib5drive7file_id15resolve_file_idNtB4_14FileIdResolverEs0_0CsdI9gn6vuHgo_12drive_detect
FN:121,_RNCINvNtNtCskXOmkMderRI_12mdviewer_lib5drive7file_id15resolve_file_idNtB4_14FileIdResolverEs1_0CsdI9gn6vuHgo_12drive_detect
FN:127,_RNCINvNtNtCskXOmkMderRI_12mdviewer_lib5drive7file_id15resolve_file_idNtB4_14FileIdResolverEs2_0CsdI9gn6vuHgo_12drive_detect
FN:107,_RNCINvNtNtCskXOmkMderRI_12mdviewer_lib5drive7file_id15resolve_file_idNtB4_14FileIdResolverEs_0CsdI9gn6vuHgo_12drive_detect
FN:97,_RINvNtNtCs2DXdqaz45d1_12mdviewer_lib5drive7file_id15resolve_file_idpEB6_
FN:104,_RNCINvNtNtCs2DXdqaz45d1_12mdviewer_lib5drive7file_id15resolve_file_idpE0B8_
FN:108,_RNCINvNtNtCs2DXdqaz45d1_12mdviewer_lib5drive7file_id15resolve_file_idpEs0_0B8_
FN:121,_RNCINvNtNtCs2DXdqaz45d1_12mdviewer_lib5drive7file_id15resolve_file_idpEs1_0B8_
FN:127,_RNCINvNtNtCs2DXdqaz45d1_12mdviewer_lib5drive7file_id15resolve_file_idpEs2_0B8_
FN:107,_RNCINvNtNtCs2DXdqaz45d1_12mdviewer_lib5drive7file_id15resolve_file_idpEs_0B8_
FN:89,_RNCNvXs_NtNtCs2DXdqaz45d1_12mdviewer_lib5drive7file_idNtB6_14FileIdResolverNtB6_13FileIdBackend10files_list0Ba_
FN:64,_RNvMNtNtCs2DXdqaz45d1_12mdviewer_lib5drive7file_idNtB2_14FileIdResolver14with_responses
FN:73,_RNvMNtNtCs2DXdqaz45d1_12mdviewer_lib5drive7file_idNtB2_14FileIdResolver5calls
FN:79,_RNvXs_NtNtCs2DXdqaz45d1_12mdviewer_lib5drive7file_idNtB4_14FileIdResolverNtB4_13FileIdBackend10files_list
FNDA:0,_RINvNtNtCskXOmkMderRI_12mdviewer_lib5drive7file_id15resolve_file_idNtNvMs_NtB6_9workspaceNtB1a_9Workspace18drive_resolve_path10ApiBackendEB6_
FNDA:0,_RNCINvNtNtCskXOmkMderRI_12mdviewer_lib5drive7file_id15resolve_file_idNtNvMs_NtB8_9workspaceNtB1c_9Workspace18drive_resolve_path10ApiBackendE0B8_
FNDA:0,_RNCINvNtNtCskXOmkMderRI_12mdviewer_lib5drive7file_id15resolve_file_idNtNvMs_NtB8_9workspaceNtB1c_9Workspace18drive_resolve_path10ApiBackendEs0_0B8_
FNDA:0,_RNCINvNtNtCskXOmkMderRI_12mdviewer_lib5drive7file_id15resolve_file_idNtNvMs_NtB8_9workspaceNtB1c_9Workspace18drive_resolve_path10ApiBackendEs1_0B8_
FNDA:0,_RNCINvNtNtCskXOmkMderRI_12mdviewer_lib5drive7file_id15resolve_file_idNtNvMs_NtB8_9workspaceNtB1c_9Workspace18drive_resolve_path10ApiBackendEs2_0B8_
FNDA:0,_RNCINvNtNtCskXOmkMderRI_12mdviewer_lib5drive7file_id15resolve_file_idNtNvMs_NtB8_9workspaceNtB1c_9Workspace18drive_resolve_path10ApiBackendEs_0B8_
FNDA:0,_RNCNvXs_NtNtCskXOmkMderRI_12mdviewer_lib5drive7file_idNtB6_14FileIdResolverNtB6_13FileIdBackend10files_list0Ba_
FNDA:4,_RNvMNtNtCskXOmkMderRI_12mdviewer_lib5drive7file_idNtB2_14FileIdResolver14with_responses
FNDA:1,_RNvMNtNtCskXOmkMderRI_12mdviewer_lib5drive7file_idNtB2_14FileIdResolver5calls
FNDA:5,_RNvXs_NtNtCskXOmkMderRI_12mdviewer_lib5drive7file_idNtB4_14FileIdResolverNtB4_13FileIdBackend10files_list
FNDA:5,_RINvNtNtCskXOmkMderRI_12mdviewer_lib5drive7file_id15resolve_file_idNtB2_14FileIdResolverECsdI9gn6vuHgo_12drive_detect
FNDA:0,_RNCINvNtNtCskXOmkMderRI_12mdviewer_lib5drive7file_id15resolve_file_idNtB4_14FileIdResolverE0CsdI9gn6vuHgo_12drive_detect
FNDA:0,_RNCINvNtNtCskXOmkMderRI_12mdviewer_lib5drive7file_id15resolve_file_idNtB4_14FileIdResolverEs0_0CsdI9gn6vuHgo_12drive_detect
FNDA:0,_RNCINvNtNtCskXOmkMderRI_12mdviewer_lib5drive7file_id15resolve_file_idNtB4_14FileIdResolverEs1_0CsdI9gn6vuHgo_12drive_detect
FNDA:56,_RNCINvNtNtCskXOmkMderRI_12mdviewer_lib5drive7file_id15resolve_file_idNtB4_14FileIdResolverEs2_0CsdI9gn6vuHgo_12drive_detect
FNDA:5,_RNCINvNtNtCskXOmkMderRI_12mdviewer_lib5drive7file_id15resolve_file_idNtB4_14FileIdResolverEs_0CsdI9gn6vuHgo_12drive_detect
FNDA:0,_RINvNtNtCs2DXdqaz45d1_12mdviewer_lib5drive7file_id15resolve_file_idpEB6_
FNDA:0,_RNCINvNtNtCs2DXdqaz45d1_12mdviewer_lib5drive7file_id15resolve_file_idpE0B8_
FNDA:0,_RNCINvNtNtCs2DXdqaz45d1_12mdviewer_lib5drive7file_id15resolve_file_idpEs0_0B8_
FNDA:0,_RNCINvNtNtCs2DXdqaz45d1_12mdviewer_lib5drive7file_id15resolve_file_idpEs1_0B8_
FNDA:0,_RNCINvNtNtCs2DXdqaz45d1_12mdviewer_lib5drive7file_id15resolve_file_idpEs2_0B8_
FNDA:0,_RNCINvNtNtCs2DXdqaz45d1_12mdviewer_lib5drive7file_id15resolve_file_idpEs_0B8_
FNDA:0,_RNCNvXs_NtNtCs2DXdqaz45d1_12mdviewer_lib5drive7file_idNtB6_14FileIdResolverNtB6_13FileIdBackend10files_list0Ba_
FNDA:0,_RNvMNtNtCs2DXdqaz45d1_12mdviewer_lib5drive7file_idNtB2_14FileIdResolver14with_responses
FNDA:0,_RNvMNtNtCs2DXdqaz45d1_12mdviewer_lib5drive7file_idNtB2_14FileIdResolver5calls
FNDA:0,_RNvXs_NtNtCs2DXdqaz45d1_12mdviewer_lib5drive7file_idNtB4_14FileIdResolverNtB4_13FileIdBackend10files_list
FNF:10
FNH:6
DA:64,4
DA:65,4
DA:66,4
DA:67,4
DA:68,4
DA:69,4
DA:70,4
DA:71,4
DA:72,4
DA:73,1
DA:74,1
DA:75,1
DA:79,5
DA:80,5
DA:81,5
DA:82,1
DA:83,4
DA:84,4
DA:85,4
DA:86,4
DA:87,4
DA:88,4
DA:89,4
DA:90,4
DA:91,4
DA:92,5
DA:97,5
DA:98,5
DA:99,5
DA:100,5
DA:101,5
DA:102,5
DA:103,5
DA:104,5
DA:105,5
DA:106,5
DA:107,5
DA:108,5
DA:115,5
DA:117,5
DA:119,5
DA:120,5
DA:121,5
DA:122,5
DA:123,5
DA:124,5
DA:125,5
DA:126,5
DA:127,56
DA:128,56
DA:129,56
DA:130,56
DA:131,5
DA:132,5
DA:133,1
DA:134,1
DA:135,1
DA:136,1
DA:137,4
DA:138,4
DA:140,0
DA:141,0
DA:142,0
DA:143,0
DA:145,3
DA:146,1
DA:148,5
BRF:0
BRH:0
LF:72
LH:64
end_of_record
SF:/home/ggtest/Work/Claude/MDViewer/.claude/worktrees/mdviewer-android/src-tauri/src/drive/files.rs
FN:104,_RNCNvNtNtCskXOmkMderRI_12mdviewer_lib5drive5files16upload_with_etag0B7_
FN:54,_RNCNvNtNtCskXOmkMderRI_12mdviewer_lib5drive5files17download_to_cache0B7_
FN:63,_RNCNvNtNtCskXOmkMderRI_12mdviewer_lib5drive5files17download_to_caches0_0B7_
FN:67,_RNCNvNtNtCskXOmkMderRI_12mdviewer_lib5drive5files17download_to_caches1_0B7_
FN:68,_RNCNvNtNtCskXOmkMderRI_12mdviewer_lib5drive5files17download_to_caches2_0B7_
FN:69,_RNCNvNtNtCskXOmkMderRI_12mdviewer_lib5drive5files17download_to_caches3_0B7_
FN:84,_RNCNvNtNtCskXOmkMderRI_12mdviewer_lib5drive5files17download_to_caches4_0B7_
FN:62,_RNCNvNtNtCskXOmkMderRI_12mdviewer_lib5drive5files17download_to_caches_0B7_
FN:119,_RNvNtNtCskXOmkMderRI_12mdviewer_lib5drive5files11now_rfc3339
FN:107,_RNvNtNtCskXOmkMderRI_12mdviewer_lib5drive5files13cache_dir_for
FN:135,_RNvNtNtCskXOmkMderRI_12mdviewer_lib5drive5files15civil_from_days
FN:97,_RNvNtNtCskXOmkMderRI_12mdviewer_lib5drive5files16upload_with_etag
FN:47,_RNvNtNtCskXOmkMderRI_12mdviewer_lib5drive5files17download_to_cache
FN:104,_RNCNvNtNtCs2DXdqaz45d1_12mdviewer_lib5drive5files16upload_with_etag0B7_
FN:54,_RNCNvNtNtCs2DXdqaz45d1_12mdviewer_lib5drive5files17download_to_cache0B7_
FN:63,_RNCNvNtNtCs2DXdqaz45d1_12mdviewer_lib5drive5files17download_to_caches0_0B7_
FN:67,_RNCNvNtNtCs2DXdqaz45d1_12mdviewer_lib5drive5files17download_to_caches1_0B7_
FN:68,_RNCNvNtNtCs2DXdqaz45d1_12mdviewer_lib5drive5files17download_to_caches2_0B7_
FN:69,_RNCNvNtNtCs2DXdqaz45d1_12mdviewer_lib5drive5files17download_to_caches3_0B7_
FN:84,_RNCNvNtNtCs2DXdqaz45d1_12mdviewer_lib5drive5files17download_to_caches4_0B7_
FN:62,_RNCNvNtNtCs2DXdqaz45d1_12mdviewer_lib5drive5files17download_to_caches_0B7_
FN:107,_RNvNtNtCs2DXdqaz45d1_12mdviewer_lib5drive5files13cache_dir_for
FN:97,_RNvNtNtCs2DXdqaz45d1_12mdviewer_lib5drive5files16upload_with_etag
FN:47,_RNvNtNtCs2DXdqaz45d1_12mdviewer_lib5drive5files17download_to_cache
FN:119,_RNvNtNtCs2DXdqaz45d1_12mdviewer_lib5drive5files11now_rfc3339
FN:135,_RNvNtNtCs2DXdqaz45d1_12mdviewer_lib5drive5files15civil_from_days
FNDA:1,_RNCNvNtNtCskXOmkMderRI_12mdviewer_lib5drive5files16upload_with_etag0B7_
FNDA:0,_RNCNvNtNtCskXOmkMderRI_12mdviewer_lib5drive5files17download_to_cache0B7_
FNDA:0,_RNCNvNtNtCskXOmkMderRI_12mdviewer_lib5drive5files17download_to_caches0_0B7_
FNDA:0,_RNCNvNtNtCskXOmkMderRI_12mdviewer_lib5drive5files17download_to_caches1_0B7_
FNDA:0,_RNCNvNtNtCskXOmkMderRI_12mdviewer_lib5drive5files17download_to_caches2_0B7_
FNDA:0,_RNCNvNtNtCskXOmkMderRI_12mdviewer_lib5drive5files17download_to_caches3_0B7_
FNDA:0,_RNCNvNtNtCskXOmkMderRI_12mdviewer_lib5drive5files17download_to_caches4_0B7_
FNDA:3,_RNCNvNtNtCskXOmkMderRI_12mdviewer_lib5drive5files17download_to_caches_0B7_
FNDA:5,_RNvNtNtCskXOmkMderRI_12mdviewer_lib5drive5files11now_rfc3339
FNDA:3,_RNvNtNtCskXOmkMderRI_12mdviewer_lib5drive5files13cache_dir_for
FNDA:5,_RNvNtNtCskXOmkMderRI_12mdviewer_lib5drive5files15civil_from_days
FNDA:3,_RNvNtNtCskXOmkMderRI_12mdviewer_lib5drive5files16upload_with_etag
FNDA:3,_RNvNtNtCskXOmkMderRI_12mdviewer_lib5drive5files17download_to_cache
FNDA:0,_RNCNvNtNtCs2DXdqaz45d1_12mdviewer_lib5drive5files16upload_with_etag0B7_
FNDA:0,_RNCNvNtNtCs2DXdqaz45d1_12mdviewer_lib5drive5files17download_to_cache0B7_
FNDA:0,_RNCNvNtNtCs2DXdqaz45d1_12mdviewer_lib5drive5files17download_to_caches0_0B7_
FNDA:0,_RNCNvNtNtCs2DXdqaz45d1_12mdviewer_lib5drive5files17download_to_caches1_0B7_
FNDA:0,_RNCNvNtNtCs2DXdqaz45d1_12mdviewer_lib5drive5files17download_to_caches2_0B7_
FNDA:0,_RNCNvNtNtCs2DXdqaz45d1_12mdviewer_lib5drive5files17download_to_caches3_0B7_
FNDA:0,_RNCNvNtNtCs2DXdqaz45d1_12mdviewer_lib5drive5files17download_to_caches4_0B7_
FNDA:0,_RNCNvNtNtCs2DXdqaz45d1_12mdviewer_lib5drive5files17download_to_caches_0B7_
FNDA:0,_RNvNtNtCs2DXdqaz45d1_12mdviewer_lib5drive5files13cache_dir_for
FNDA:0,_RNvNtNtCs2DXdqaz45d1_12mdviewer_lib5drive5files16upload_with_etag
FNDA:0,_RNvNtNtCs2DXdqaz45d1_12mdviewer_lib5drive5files17download_to_cache
FNDA:0,_RNvNtNtCs2DXdqaz45d1_12mdviewer_lib5drive5files11now_rfc3339
FNDA:0,_RNvNtNtCs2DXdqaz45d1_12mdviewer_lib5drive5files15civil_from_days
FNF:13
FNH:7
DA:47,3
DA:48,3
DA:49,3
DA:50,3
DA:51,3
DA:52,3
DA:53,3
DA:54,3
DA:55,3
DA:56,3
DA:58,3
DA:59,3
DA:60,3
DA:61,3
DA:62,3
DA:63,3
DA:64,3
DA:65,3
DA:66,3
DA:67,3
DA:68,3
DA:69,3
DA:71,3
DA:72,3
DA:73,3
DA:75,3
DA:76,3
DA:77,3
DA:78,3
DA:79,3
DA:80,3
DA:81,3
DA:82,3
DA:84,3
DA:86,3
DA:87,3
DA:88,3
DA:89,3
DA:90,3
DA:97,3
DA:98,3
DA:99,3
DA:100,3
DA:101,3
DA:102,3
DA:103,3
DA:104,3
DA:105,3
DA:107,3
DA:108,3
DA:109,3
DA:110,3
DA:111,3
DA:112,3
DA:119,5
DA:120,5
DA:121,5
DA:122,5
DA:123,5
DA:124,5
DA:125,5
DA:126,5
DA:127,5
DA:128,5
DA:129,5
DA:130,5
DA:131,5
DA:135,5
DA:136,5
DA:137,5
DA:138,5
DA:139,5
DA:140,5
DA:141,5
DA:142,5
DA:143,5
DA:144,5
DA:145,5
DA:146,5
DA:147,5
BRF:0
BRH:0
LF:88
LH:82
end_of_record
SF:/home/ggtest/Work/Claude/MDViewer/.claude/worktrees/mdviewer-android/src-tauri/src/drive/keyring.rs
FN:118,_RINvNtNtCskXOmkMderRI_12mdviewer_lib5drive7keyring11derive_fromNtB2_9OsKeyringEB6_
FN:141,_RINvNtNtCskXOmkMderRI_12mdviewer_lib5drive7keyring16get_or_mint_saltNtB2_9OsKeyringEB6_
FN:145,_RNCINvNtNtCskXOmkMderRI_12mdviewer_lib5drive7keyring16get_or_mint_saltNtB4_9OsKeyringE0B8_
FN:148,_RNCINvNtNtCskXOmkMderRI_12mdviewer_lib5drive7keyring16get_or_mint_saltNtB4_9OsKeyringEs_0B8_
FN:47,_RNCNvXNtNtCskXOmkMderRI_12mdviewer_lib5drive7keyringNtB4_9OsKeyringNtB4_12KeyringStore3set0B8_
FN:49,_RNCNvXNtNtCskXOmkMderRI_12mdviewer_lib5drive7keyringNtB4_9OsKeyringNtB4_12KeyringStore3sets_0B8_
FN:81,_RNvMs_NtNtCskXOmkMderRI_12mdviewer_lib5drive7keyringNtB4_14KeyringBackend17fallback_was_used
FN:74,_RNvMs_NtNtCskXOmkMderRI_12mdviewer_lib5drive7keyringNtB4_14KeyringBackend7failing
FN:65,_RNvMs_NtNtCskXOmkMderRI_12mdviewer_lib5drive7keyringNtB4_14KeyringBackend9in_memory
FN:107,_RNvNtNtCskXOmkMderRI_12mdviewer_lib5drive7keyring9vault_key
FN:42,_RNvXNtNtCskXOmkMderRI_12mdviewer_lib5drive7keyringNtB2_9OsKeyringNtB2_12KeyringStore3get
FN:45,_RNvXNtNtCskXOmkMderRI_12mdviewer_lib5drive7keyringNtB2_9OsKeyringNtB2_12KeyringStore3set
FN:87,_RNvXs0_NtNtCskXOmkMderRI_12mdviewer_lib5drive7keyringNtB5_14KeyringBackendNtB5_12KeyringStore3get
FN:90,_RNvXs0_NtNtCskXOmkMderRI_12mdviewer_lib5drive7keyringNtB5_14KeyringBackendNtB5_12KeyringStore3set
FN:114,_RINvNtNtCskXOmkMderRI_12mdviewer_lib5drive7keyring18vault_key_for_testpEB6_
FN:118,_RINvNtNtCskXOmkMderRI_12mdviewer_lib5drive7keyring11derive_fromNtB2_14KeyringBackendECsg8AbCofCkQ3_13drive_keyring
FN:141,_RINvNtNtCskXOmkMderRI_12mdviewer_lib5drive7keyring16get_or_mint_saltNtB2_14KeyringBackendECsg8AbCofCkQ3_13drive_keyring
FN:114,_RINvNtNtCskXOmkMderRI_12mdviewer_lib5drive7keyring18vault_key_for_testNtB2_14KeyringBackendECsg8AbCofCkQ3_13drive_keyring
FN:145,_RNCINvNtNtCskXOmkMderRI_12mdviewer_lib5drive7keyring16get_or_mint_saltNtB4_14KeyringBackendE0Csg8AbCofCkQ3_13drive_keyring
FN:148,_RNCINvNtNtCskXOmkMderRI_12mdviewer_lib5drive7keyring16get_or_mint_saltNtB4_14KeyringBackendEs_0Csg8AbCofCkQ3_13drive_keyring
FN:118,_RINvNtNtCs2DXdqaz45d1_12mdviewer_lib5drive7keyring11derive_frompEB6_
FN:141,_RINvNtNtCs2DXdqaz45d1_12mdviewer_lib5drive7keyring16get_or_mint_saltpEB6_
FN:114,_RINvNtNtCs2DXdqaz45d1_12mdviewer_lib5drive7keyring18vault_key_for_testpEB6_
FN:145,_RNCINvNtNtCs2DXdqaz45d1_12mdviewer_lib5drive7keyring16get_or_mint_saltpE0B8_
FN:148,_RNCINvNtNtCs2DXdqaz45d1_12mdviewer_lib5drive7keyring16get_or_mint_saltpEs_0B8_
FN:47,_RNCNvXNtNtCs2DXdqaz45d1_12mdviewer_lib5drive7keyringNtB4_9OsKeyringNtB4_12KeyringStore3set0B8_
FN:49,_RNCNvXNtNtCs2DXdqaz45d1_12mdviewer_lib5drive7keyringNtB4_9OsKeyringNtB4_12KeyringStore3sets_0B8_
FN:81,_RNvMs_NtNtCs2DXdqaz45d1_12mdviewer_lib5drive7keyringNtB4_14KeyringBackend17fallback_was_used
FN:74,_RNvMs_NtNtCs2DXdqaz45d1_12mdviewer_lib5drive7keyringNtB4_14KeyringBackend7failing
FN:65,_RNvMs_NtNtCs2DXdqaz45d1_12mdviewer_lib5drive7keyringNtB4_14KeyringBackend9in_memory
FN:107,_RNvNtNtCs2DXdqaz45d1_12mdviewer_lib5drive7keyring9vault_key
FN:42,_RNvXNtNtCs2DXdqaz45d1_12mdviewer_lib5drive7keyringNtB2_9OsKeyringNtB2_12KeyringStore3get
FN:45,_RNvXNtNtCs2DXdqaz45d1_12mdviewer_lib5drive7keyringNtB2_9OsKeyringNtB2_12KeyringStore3set
FN:87,_RNvXs0_NtNtCs2DXdqaz45d1_12mdviewer_lib5drive7keyringNtB5_14KeyringBackendNtB5_12KeyringStore3get
FN:90,_RNvXs0_NtNtCs2DXdqaz45d1_12mdviewer_lib5drive7keyringNtB5_14KeyringBackendNtB5_12KeyringStore3set
FNDA:5,_RINvNtNtCskXOmkMderRI_12mdviewer_lib5drive7keyring11derive_fromNtB2_9OsKeyringEB6_
FNDA:5,_RINvNtNtCskXOmkMderRI_12mdviewer_lib5drive7keyring16get_or_mint_saltNtB2_9OsKeyringEB6_
FNDA:0,_RNCINvNtNtCskXOmkMderRI_12mdviewer_lib5drive7keyring16get_or_mint_saltNtB4_9OsKeyringE0B8_
FNDA:0,_RNCINvNtNtCskXOmkMderRI_12mdviewer_lib5drive7keyring16get_or_mint_saltNtB4_9OsKeyringEs_0B8_
FNDA:0,_RNCNvXNtNtCskXOmkMderRI_12mdviewer_lib5drive7keyringNtB4_9OsKeyringNtB4_12KeyringStore3set0B8_
FNDA:5,_RNCNvXNtNtCskXOmkMderRI_12mdviewer_lib5drive7keyringNtB4_9OsKeyringNtB4_12KeyringStore3sets_0B8_
FNDA:1,_RNvMs_NtNtCskXOmkMderRI_12mdviewer_lib5drive7keyringNtB4_14KeyringBackend17fallback_was_used
FNDA:1,_RNvMs_NtNtCskXOmkMderRI_12mdviewer_lib5drive7keyringNtB4_14KeyringBackend7failing
FNDA:3,_RNvMs_NtNtCskXOmkMderRI_12mdviewer_lib5drive7keyringNtB4_14KeyringBackend9in_memory
FNDA:5,_RNvNtNtCskXOmkMderRI_12mdviewer_lib5drive7keyring9vault_key
FNDA:5,_RNvXNtNtCskXOmkMderRI_12mdviewer_lib5drive7keyringNtB2_9OsKeyringNtB2_12KeyringStore3get
FNDA:5,_RNvXNtNtCskXOmkMderRI_12mdviewer_lib5drive7keyringNtB2_9OsKeyringNtB2_12KeyringStore3set
FNDA:5,_RNvXs0_NtNtCskXOmkMderRI_12mdviewer_lib5drive7keyringNtB5_14KeyringBackendNtB5_12KeyringStore3get
FNDA:4,_RNvXs0_NtNtCskXOmkMderRI_12mdviewer_lib5drive7keyringNtB5_14KeyringBackendNtB5_12KeyringStore3set
FNDA:0,_RINvNtNtCskXOmkMderRI_12mdviewer_lib5drive7keyring18vault_key_for_testpEB6_
FNDA:5,_RINvNtNtCskXOmkMderRI_12mdviewer_lib5drive7keyring11derive_fromNtB2_14KeyringBackendECsg8AbCofCkQ3_13drive_keyring
FNDA:5,_RINvNtNtCskXOmkMderRI_12mdviewer_lib5drive7keyring16get_or_mint_saltNtB2_14KeyringBackendECsg8AbCofCkQ3_13drive_keyring
FNDA:5,_RINvNtNtCskXOmkMderRI_12mdviewer_lib5drive7keyring18vault_key_for_testNtB2_14KeyringBackendECsg8AbCofCkQ3_13drive_keyring
FNDA:0,_RNCINvNtNtCskXOmkMderRI_12mdviewer_lib5drive7keyring16get_or_mint_saltNtB4_14KeyringBackendE0Csg8AbCofCkQ3_13drive_keyring
FNDA:0,_RNCINvNtNtCskXOmkMderRI_12mdviewer_lib5drive7keyring16get_or_mint_saltNtB4_14KeyringBackendEs_0Csg8AbCofCkQ3_13drive_keyring
FNDA:0,_RINvNtNtCs2DXdqaz45d1_12mdviewer_lib5drive7keyring11derive_frompEB6_
FNDA:0,_RINvNtNtCs2DXdqaz45d1_12mdviewer_lib5drive7keyring16get_or_mint_saltpEB6_
FNDA:0,_RINvNtNtCs2DXdqaz45d1_12mdviewer_lib5drive7keyring18vault_key_for_testpEB6_
FNDA:0,_RNCINvNtNtCs2DXdqaz45d1_12mdviewer_lib5drive7keyring16get_or_mint_saltpE0B8_
FNDA:0,_RNCINvNtNtCs2DXdqaz45d1_12mdviewer_lib5drive7keyring16get_or_mint_saltpEs_0B8_
FNDA:0,_RNCNvXNtNtCs2DXdqaz45d1_12mdviewer_lib5drive7keyringNtB4_9OsKeyringNtB4_12KeyringStore3set0B8_
FNDA:0,_RNCNvXNtNtCs2DXdqaz45d1_12mdviewer_lib5drive7keyringNtB4_9OsKeyringNtB4_12KeyringStore3sets_0B8_
FNDA:0,_RNvMs_NtNtCs2DXdqaz45d1_12mdviewer_lib5drive7keyringNtB4_14KeyringBackend17fallback_was_used
FNDA:0,_RNvMs_NtNtCs2DXdqaz45d1_12mdviewer_lib5drive7keyringNtB4_14KeyringBackend7failing
FNDA:0,_RNvMs_NtNtCs2DXdqaz45d1_12mdviewer_lib5drive7keyringNtB4_14KeyringBackend9in_memory
FNDA:0,_RNvNtNtCs2DXdqaz45d1_12mdviewer_lib5drive7keyring9vault_key
FNDA:0,_RNvXNtNtCs2DXdqaz45d1_12mdviewer_lib5drive7keyringNtB2_9OsKeyringNtB2_12KeyringStore3get
FNDA:0,_RNvXNtNtCs2DXdqaz45d1_12mdviewer_lib5drive7keyringNtB2_9OsKeyringNtB2_12KeyringStore3set
FNDA:0,_RNvXs0_NtNtCs2DXdqaz45d1_12mdviewer_lib5drive7keyringNtB5_14KeyringBackendNtB5_12KeyringStore3get
FNDA:0,_RNvXs0_NtNtCs2DXdqaz45d1_12mdviewer_lib5drive7keyringNtB5_14KeyringBackendNtB5_12KeyringStore3set
FNF:15
FNH:12
DA:42,5
DA:43,5
DA:44,5
DA:45,5
DA:46,5
DA:47,5
DA:48,5
DA:49,5
DA:50,5
DA:65,3
DA:66,3
DA:67,3
DA:68,3
DA:69,3
DA:70,3
DA:74,1
DA:75,1
DA:76,1
DA:77,1
DA:78,1
DA:79,1
DA:81,1
DA:82,1
DA:83,1
DA:87,5
DA:88,5
DA:89,5
DA:90,4
DA:91,4
DA:92,4
DA:93,3
DA:94,3
DA:95,3
DA:98,1
DA:99,1
DA:102,4
DA:107,5
DA:108,5
DA:109,5
DA:114,5
DA:115,5
DA:116,5
DA:118,10
DA:119,10
DA:120,4
DA:122,6
DA:127,6
DA:132,4
DA:133,4
DA:134,4
DA:135,4
DA:136,4
DA:137,4
DA:138,4
DA:139,10
DA:141,10
DA:142,10
DA:143,1
DA:144,1
DA:145,1
DA:146,9
DA:147,9
DA:148,9
DA:149,9
DA:150,9
DA:151,3
DA:152,10
BRF:0
BRH:0
LF:71
LH:68
end_of_record
SF:/home/ggtest/Work/Claude/MDViewer/.claude/worktrees/mdviewer-android/src-tauri/src/drive/mod.rs
FN:69,_RNvNtCskXOmkMderRI_12mdviewer_lib5drive15parse_drive_url
FN:82,_RNCNvNtCskXOmkMderRI_12mdviewer_lib5drive15parse_drive_urls_0B5_
FN:69,_RNvNtCs2DXdqaz45d1_12mdviewer_lib5drive15parse_drive_url
FN:82,_RNCNvNtCs2DXdqaz45d1_12mdviewer_lib5drive15parse_drive_urls_0B5_
FN:104,_RNvNtNtCs2DXdqaz45d1_12mdviewer_lib5drive5testss_21parse_url_file_d_form
FN:112,_RNvNtNtCs2DXdqaz45d1_12mdviewer_lib5drive5testss_23parse_url_query_id_form
FN:131,_RNvNtNtCs2DXdqaz45d1_12mdviewer_lib5drive5testss_25parse_url_rejects_garbage
FN:125,_RNvNtNtCs2DXdqaz45d1_12mdviewer_lib5drive5testss_26parse_url_rejects_empty_id
FN:120,_RNvNtNtCs2DXdqaz45d1_12mdviewer_lib5drive5testss_28parse_url_rejects_non_google
FNDA:11,_RNvNtCskXOmkMderRI_12mdviewer_lib5drive15parse_drive_url
FNDA:8,_RNCNvNtCskXOmkMderRI_12mdviewer_lib5drive15parse_drive_urls_0B5_
FNDA:7,_RNvNtCs2DXdqaz45d1_12mdviewer_lib5drive15parse_drive_url
FNDA:4,_RNCNvNtCs2DXdqaz45d1_12mdviewer_lib5drive15parse_drive_urls_0B5_
FNDA:1,_RNvNtNtCs2DXdqaz45d1_12mdviewer_lib5drive5testss_21parse_url_file_d_form
FNDA:1,_RNvNtNtCs2DXdqaz45d1_12mdviewer_lib5drive5testss_23parse_url_query_id_form
FNDA:1,_RNvNtNtCs2DXdqaz45d1_12mdviewer_lib5drive5testss_25parse_url_rejects_garbage
FNDA:1,_RNvNtNtCs2DXdqaz45d1_12mdviewer_lib5drive5testss_26parse_url_rejects_empty_id
FNDA:1,_RNvNtNtCs2DXdqaz45d1_12mdviewer_lib5drive5testss_28parse_url_rejects_non_google
FNF:7
FNH:7
DA:69,18
DA:70,18
DA:71,16
DA:76,16
DA:77,4
DA:78,12
DA:80,12
DA:81,12
DA:82,12
DA:83,12
DA:84,12
DA:85,7
DA:86,7
DA:87,5
DA:88,2
DA:89,5
DA:91,7
DA:92,4
DA:93,2
DA:94,2
DA:96,5
DA:97,18
DA:104,1
DA:105,1
DA:106,1
DA:109,1
DA:112,1
DA:113,1
DA:114,1
DA:117,1
DA:120,1
DA:121,1
DA:122,1
DA:125,1
DA:126,1
DA:127,1
DA:128,1
DA:131,1
DA:132,1
DA:133,1
DA:134,1
BRF:0
BRH:0
LF:42
LH:42
end_of_record
SF:/home/ggtest/Work/Claude/MDViewer/.claude/worktrees/mdviewer-android/src-tauri/src/drive/queue.rs
FN:270,_RNCNCNvNtNtCskXOmkMderRI_12mdviewer_lib5drive5queue16spawn_replay_all00B9_
FN:120,_RNCNvMNtNtCskXOmkMderRI_12mdviewer_lib5drive5queueNtB4_10DriveQueue8is_empty0B8_
FN:262,_RNCNvNtNtCskXOmkMderRI_12mdviewer_lib5drive5queue16spawn_replay_all0B7_
FN:153,_RNCNvNtNtCskXOmkMderRI_12mdviewer_lib5drive5queue6replay0B7_
FN:228,_RNCNvNtNtCskXOmkMderRI_12mdviewer_lib5drive5queue6replays_0B7_
FN:61,_RNvMNtNtCskXOmkMderRI_12mdviewer_lib5drive5queueNtB2_10DriveQueue4open
FN:92,_RNvMNtNtCskXOmkMderRI_12mdviewer_lib5drive5queueNtB2_10DriveQueue5drain
FN:76,_RNvMNtNtCskXOmkMderRI_12mdviewer_lib5drive5queueNtB2_10DriveQueue6append
FN:117,_RNvMNtNtCskXOmkMderRI_12mdviewer_lib5drive5queueNtB2_10DriveQueue8is_empty
FN:253,_RNvNtNtCskXOmkMderRI_12mdviewer_lib5drive5queue16spawn_replay_all
FN:145,_RNvNtNtCskXOmkMderRI_12mdviewer_lib5drive5queue6replay
FN:270,_RNCNCNvNtNtCs2DXdqaz45d1_12mdviewer_lib5drive5queue16spawn_replay_all00B9_
FN:262,_RNCNvNtNtCs2DXdqaz45d1_12mdviewer_lib5drive5queue16spawn_replay_all0B7_
FN:253,_RNvNtNtCs2DXdqaz45d1_12mdviewer_lib5drive5queue16spawn_replay_all
FN:120,_RNCNvMNtNtCs2DXdqaz45d1_12mdviewer_lib5drive5queueNtB4_10DriveQueue8is_empty0B8_
FN:153,_RNCNvNtNtCs2DXdqaz45d1_12mdviewer_lib5drive5queue6replay0B7_
FN:228,_RNCNvNtNtCs2DXdqaz45d1_12mdviewer_lib5drive5queue6replays_0B7_
FN:61,_RNvMNtNtCs2DXdqaz45d1_12mdviewer_lib5drive5queueNtB2_10DriveQueue4open
FN:92,_RNvMNtNtCs2DXdqaz45d1_12mdviewer_lib5drive5queueNtB2_10DriveQueue5drain
FN:76,_RNvMNtNtCs2DXdqaz45d1_12mdviewer_lib5drive5queueNtB2_10DriveQueue6append
FN:117,_RNvMNtNtCs2DXdqaz45d1_12mdviewer_lib5drive5queueNtB2_10DriveQueue8is_empty
FN:145,_RNvNtNtCs2DXdqaz45d1_12mdviewer_lib5drive5queue6replay
FNDA:0,_RNCNCNvNtNtCskXOmkMderRI_12mdviewer_lib5drive5queue16spawn_replay_all00B9_
FNDA:3,_RNCNvMNtNtCskXOmkMderRI_12mdviewer_lib5drive5queueNtB4_10DriveQueue8is_empty0B8_
FNDA:0,_RNCNvNtNtCskXOmkMderRI_12mdviewer_lib5drive5queue16spawn_replay_all0B7_
FNDA:0,_RNCNvNtNtCskXOmkMderRI_12mdviewer_lib5drive5queue6replay0B7_
FNDA:0,_RNCNvNtNtCskXOmkMderRI_12mdviewer_lib5drive5queue6replays_0B7_
FNDA:4,_RNvMNtNtCskXOmkMderRI_12mdviewer_lib5drive5queueNtB2_10DriveQueue4open
FNDA:6,_RNvMNtNtCskXOmkMderRI_12mdviewer_lib5drive5queueNtB2_10DriveQueue5drain
FNDA:12,_RNvMNtNtCskXOmkMderRI_12mdviewer_lib5drive5queueNtB2_10DriveQueue6append
FNDA:3,_RNvMNtNtCskXOmkMderRI_12mdviewer_lib5drive5queueNtB2_10DriveQueue8is_empty
FNDA:0,_RNvNtNtCskXOmkMderRI_12mdviewer_lib5drive5queue16spawn_replay_all
FNDA:2,_RNvNtNtCskXOmkMderRI_12mdviewer_lib5drive5queue6replay
FNDA:0,_RNCNCNvNtNtCs2DXdqaz45d1_12mdviewer_lib5drive5queue16spawn_replay_all00B9_
FNDA:0,_RNCNvNtNtCs2DXdqaz45d1_12mdviewer_lib5drive5queue16spawn_replay_all0B7_
FNDA:0,_RNvNtNtCs2DXdqaz45d1_12mdviewer_lib5drive5queue16spawn_replay_all
FNDA:0,_RNCNvMNtNtCs2DXdqaz45d1_12mdviewer_lib5drive5queueNtB4_10DriveQueue8is_empty0B8_
FNDA:0,_RNCNvNtNtCs2DXdqaz45d1_12mdviewer_lib5drive5queue6replay0B7_
FNDA:0,_RNCNvNtNtCs2DXdqaz45d1_12mdviewer_lib5drive5queue6replays_0B7_
FNDA:0,_RNvMNtNtCs2DXdqaz45d1_12mdviewer_lib5drive5queueNtB2_10DriveQueue4open
FNDA:0,_RNvMNtNtCs2DXdqaz45d1_12mdviewer_lib5drive5queueNtB2_10DriveQueue5drain
FNDA:0,_RNvMNtNtCs2DXdqaz45d1_12mdviewer_lib5drive5queueNtB2_10DriveQueue6append
FNDA:0,_RNvMNtNtCs2DXdqaz45d1_12mdviewer_lib5drive5queueNtB2_10DriveQueue8is_empty
FNDA:0,_RNvNtNtCs2DXdqaz45d1_12mdviewer_lib5drive5queue6replay
FNF:11
FNH:6
DA:61,4
DA:62,4
DA:63,4
DA:64,4
DA:65,4
DA:66,4
DA:67,4
DA:68,4
DA:69,4
DA:70,4
DA:76,12
DA:77,12
DA:78,12
DA:79,12
DA:80,12
DA:81,12
DA:82,12
DA:83,12
DA:84,12
DA:85,12
DA:92,6
DA:93,6
DA:94,6
DA:95,0
DA:96,6
DA:97,6
DA:98,6
DA:99,6
DA:100,12
DA:101,12
DA:102,12
DA:103,0
DA:104,12
DA:105,12
DA:106,12
DA:107,12
DA:111,6
DA:112,6
DA:113,6
DA:117,3
DA:118,3
DA:119,3
DA:120,3
DA:121,3
DA:122,3
DA:145,2
DA:146,2
DA:147,2
DA:148,2
DA:149,2
DA:150,2
DA:151,2
DA:152,2
DA:153,2
DA:154,2
DA:155,5
DA:160,4
DA:162,4
DA:163,4
DA:164,4
DA:166,4
DA:167,4
DA:168,4
DA:169,4
DA:170,4
DA:171,4
DA:172,4
DA:173,4
DA:174,4
DA:175,4
DA:176,4
DA:177,4
DA:178,3
DA:179,3
DA:180,3
DA:181,3
DA:182,3
DA:183,3
DA:184,3
DA:185,3
DA:186,3
DA:188,1
DA:191,0
DA:193,0
DA:194,0
DA:195,0
DA:197,0
DA:198,0
DA:199,0
DA:200,0
DA:201,0
DA:202,0
DA:203,0
DA:204,0
DA:205,0
DA:206,0
DA:207,0
DA:208,0
DA:209,0
DA:210,0
DA:211,0
DA:212,0
DA:214,0
DA:219,4
DA:223,1
DA:224,1
DA:225,1
DA:226,2
DA:227,2
DA:228,2
DA:230,1
DA:231,3
DA:233,1
DA:234,2
DA:253,0
DA:254,0
DA:255,0
DA:256,0
DA:257,0
DA:258,0
DA:259,0
DA:260,0
DA:261,0
DA:262,0
DA:263,0
DA:266,0
DA:267,0
DA:268,0
DA:269,0
DA:270,0
DA:271,0
DA:272,0
DA:273,0
DA:274,0
DA:275,0
DA:276,0
DA:277,0
DA:278,0
DA:283,0
DA:285,0
DA:286,0
BRF:0
BRH:0
LF:146
LH:92
end_of_record
SF:/home/ggtest/Work/Claude/MDViewer/.claude/worktrees/mdviewer-android/src-tauri/src/drive/tokens.rs
FN:42,_RNvMNtNtCskXOmkMderRI_12mdviewer_lib5drive6tokensNtB2_10TokenStore13open_for_test
FN:53,_RNvMNtNtCskXOmkMderRI_12mdviewer_lib5drive6tokensNtB2_10TokenStore3key
FN:49,_RNvMNtNtCskXOmkMderRI_12mdviewer_lib5drive6tokensNtB2_10TokenStore8snapshot
FN:75,_RNvNtNtCskXOmkMderRI_12mdviewer_lib5drive6tokens18load_refresh_token
FN:60,_RNvNtNtCskXOmkMderRI_12mdviewer_lib5drive6tokens18save_refresh_token
FN:83,_RNvNtNtCskXOmkMderRI_12mdviewer_lib5drive6tokens8read_map
FN:103,_RNvNtNtCskXOmkMderRI_12mdviewer_lib5drive6tokens9write_map
FN:97,_RNCNvNtNtCskXOmkMderRI_12mdviewer_lib5drive6tokens8read_map0B7_
FN:100,_RNCNvNtNtCskXOmkMderRI_12mdviewer_lib5drive6tokens8read_maps_0B7_
FN:108,_RNCNvNtNtCskXOmkMderRI_12mdviewer_lib5drive6tokens9write_map0B7_
FN:112,_RNCNvNtNtCskXOmkMderRI_12mdviewer_lib5drive6tokens9write_maps_0B7_
FN:97,_RNCNvNtNtCs2DXdqaz45d1_12mdviewer_lib5drive6tokens8read_map0B7_
FN:100,_RNCNvNtNtCs2DXdqaz45d1_12mdviewer_lib5drive6tokens8read_maps_0B7_
FN:108,_RNCNvNtNtCs2DXdqaz45d1_12mdviewer_lib5drive6tokens9write_map0B7_
FN:112,_RNCNvNtNtCs2DXdqaz45d1_12mdviewer_lib5drive6tokens9write_maps_0B7_
FN:42,_RNvMNtNtCs2DXdqaz45d1_12mdviewer_lib5drive6tokensNtB2_10TokenStore13open_for_test
FN:53,_RNvMNtNtCs2DXdqaz45d1_12mdviewer_lib5drive6tokensNtB2_10TokenStore3key
FN:49,_RNvMNtNtCs2DXdqaz45d1_12mdviewer_lib5drive6tokensNtB2_10TokenStore8snapshot
FN:75,_RNvNtNtCs2DXdqaz45d1_12mdviewer_lib5drive6tokens18load_refresh_token
FN:60,_RNvNtNtCs2DXdqaz45d1_12mdviewer_lib5drive6tokens18save_refresh_token
FN:83,_RNvNtNtCs2DXdqaz45d1_12mdviewer_lib5drive6tokens8read_map
FN:103,_RNvNtNtCs2DXdqaz45d1_12mdviewer_lib5drive6tokens9write_map
FNDA:8,_RNvMNtNtCskXOmkMderRI_12mdviewer_lib5drive6tokensNtB2_10TokenStore13open_for_test
FNDA:342,_RNvMNtNtCskXOmkMderRI_12mdviewer_lib5drive6tokensNtB2_10TokenStore3key
FNDA:29,_RNvMNtNtCskXOmkMderRI_12mdviewer_lib5drive6tokensNtB2_10TokenStore8snapshot
FNDA:4,_RNvNtNtCskXOmkMderRI_12mdviewer_lib5drive6tokens18load_refresh_token
FNDA:7,_RNvNtNtCskXOmkMderRI_12mdviewer_lib5drive6tokens18save_refresh_token
FNDA:11,_RNvNtNtCskXOmkMderRI_12mdviewer_lib5drive6tokens8read_map
FNDA:7,_RNvNtNtCskXOmkMderRI_12mdviewer_lib5drive6tokens9write_map
FNDA:129,_RNCNvNtNtCskXOmkMderRI_12mdviewer_lib5drive6tokens8read_map0B7_
FNDA:0,_RNCNvNtNtCskXOmkMderRI_12mdviewer_lib5drive6tokens8read_maps_0B7_
FNDA:0,_RNCNvNtNtCskXOmkMderRI_12mdviewer_lib5drive6tokens9write_map0B7_
FNDA:213,_RNCNvNtNtCskXOmkMderRI_12mdviewer_lib5drive6tokens9write_maps_0B7_
FNDA:0,_RNCNvNtNtCs2DXdqaz45d1_12mdviewer_lib5drive6tokens8read_map0B7_
FNDA:0,_RNCNvNtNtCs2DXdqaz45d1_12mdviewer_lib5drive6tokens8read_maps_0B7_
FNDA:0,_RNCNvNtNtCs2DXdqaz45d1_12mdviewer_lib5drive6tokens9write_map0B7_
FNDA:0,_RNCNvNtNtCs2DXdqaz45d1_12mdviewer_lib5drive6tokens9write_maps_0B7_
FNDA:0,_RNvMNtNtCs2DXdqaz45d1_12mdviewer_lib5drive6tokensNtB2_10TokenStore13open_for_test
FNDA:0,_RNvMNtNtCs2DXdqaz45d1_12mdviewer_lib5drive6tokensNtB2_10TokenStore3key
FNDA:0,_RNvMNtNtCs2DXdqaz45d1_12mdviewer_lib5drive6tokensNtB2_10TokenStore8snapshot
FNDA:0,_RNvNtNtCs2DXdqaz45d1_12mdviewer_lib5drive6tokens18load_refresh_token
FNDA:0,_RNvNtNtCs2DXdqaz45d1_12mdviewer_lib5drive6tokens18save_refresh_token
FNDA:0,_RNvNtNtCs2DXdqaz45d1_12mdviewer_lib5drive6tokens8read_map
FNDA:0,_RNvNtNtCs2DXdqaz45d1_12mdviewer_lib5drive6tokens9write_map
FNF:11
FNH:9
DA:42,8
DA:43,8
DA:44,8
DA:45,8
DA:46,8
DA:47,8
DA:49,29
DA:50,29
DA:51,29
DA:53,342
DA:54,342
DA:55,342
DA:60,7
DA:61,7
DA:62,7
DA:63,7
DA:64,7
DA:67,7
DA:68,7
DA:69,7
DA:70,7
DA:75,4
DA:76,4
DA:77,4
DA:78,4
DA:79,4
DA:80,4
DA:81,4
DA:83,11
DA:84,11
DA:85,7
DA:86,4
DA:87,4
DA:88,4
DA:89,0
DA:90,4
DA:94,4
DA:95,4
DA:96,4
DA:97,129
DA:98,4
DA:99,4
DA:100,4
DA:101,11
DA:103,7
DA:104,7
DA:105,7
DA:106,7
DA:107,7
DA:108,7
DA:109,7
DA:110,7
DA:111,7
DA:112,213
DA:113,7
DA:114,7
DA:115,7
DA:116,0
DA:117,7
DA:118,7
BRF:0
BRH:0
LF:64
LH:60
end_of_record
SF:/home/ggtest/Work/Claude/MDViewer/.claude/worktrees/mdviewer-android/src-tauri/src/lib.rs
FN:23,_RNvCskXOmkMderRI_12mdviewer_lib10build_info
FN:23,_RNvCs2DXdqaz45d1_12mdviewer_lib10build_info
FNDA:1,_RNvCskXOmkMderRI_12mdviewer_lib10build_info
FNDA:0,_RNvCs2DXdqaz45d1_12mdviewer_lib10build_info
FNF:1
FNH:1
DA:23,1
DA:24,1
DA:25,1
DA:26,1
DA:27,1
DA:28,1
BRF:0
BRH:0
LF:6
LH:6
end_of_record
SF:/home/ggtest/Work/Claude/MDViewer/.claude/worktrees/mdviewer-android/src-tauri/src/main.rs
FN:1114,_RNCINvNvCscHyV8aGLwhP_8mdviewer4main5innerppE0B6_
FN:1068,_RNCNCNCNvCscHyV8aGLwhP_8mdviewer4mains1_0s2_00B7_
FN:705,_RNCNCNCNvCscHyV8aGLwhP_8mdviewer4mains3_0sn_00B7_
FN:758,_RNCNCNCNvCscHyV8aGLwhP_8mdviewer4mains3_0so_00B7_
FN:775,_RNCNCNCNvCscHyV8aGLwhP_8mdviewer4mains3_0sq_00B7_
FN:820,_RNCNCNCNvCscHyV8aGLwhP_8mdviewer4mains3_0st_00B7_
FN:719,_RNCNCNvCscHyV8aGLwhP_8mdviewer13drive_connect00B5_
FN:736,_RNCNCNvCscHyV8aGLwhP_8mdviewer13drive_connect0s0_0B5_
FN:737,_RNCNCNvCscHyV8aGLwhP_8mdviewer13drive_connect0s1_0B5_
FN:749,_RNCNCNvCscHyV8aGLwhP_8mdviewer13drive_connect0s2_0B5_
FN:734,_RNCNCNvCscHyV8aGLwhP_8mdviewer13drive_connect0s_0B5_
FN:781,_RNCNCNvCscHyV8aGLwhP_8mdviewer14drive_open_url00B5_
FN:788,_RNCNCNvCscHyV8aGLwhP_8mdviewer14drive_open_url0s_0B5_
FN:763,_RNCNCNvCscHyV8aGLwhP_8mdviewer16drive_disconnect00B5_
FN:156,_RNCNCNvCscHyV8aGLwhP_8mdviewer17get_active_tab_id00B5_
FN:827,_RNCNCNvCscHyV8aGLwhP_8mdviewer21is_drive_desktop_path00B5_
FN:1012,_RNCNCNvCscHyV8aGLwhP_8mdviewer4mains1_00B5_
FN:1017,_RNCNCNvCscHyV8aGLwhP_8mdviewer4mains1_0s0_0B5_
FN:1047,_RNCNCNvCscHyV8aGLwhP_8mdviewer4mains1_0s1_0B5_
FN:1058,_RNCNCNvCscHyV8aGLwhP_8mdviewer4mains1_0s2_0B5_
FN:1016,_RNCNCNvCscHyV8aGLwhP_8mdviewer4mains1_0s_0B5_
FN:222,_RNCNvCscHyV8aGLwhP_8mdviewer10post_reply0B3_
FN:234,_RNCNvCscHyV8aGLwhP_8mdviewer10post_replys0_0B3_
FN:224,_RNCNvCscHyV8aGLwhP_8mdviewer10post_replys_0B3_
FN:126,_RNCNvCscHyV8aGLwhP_8mdviewer12activate_tab0B3_
FN:128,_RNCNvCscHyV8aGLwhP_8mdviewer12activate_tabs_0B3_
FN:185,_RNCNvCscHyV8aGLwhP_8mdviewer12list_threads0B3_
FN:188,_RNCNvCscHyV8aGLwhP_8mdviewer12list_threadss0_0B3_
FN:187,_RNCNvCscHyV8aGLwhP_8mdviewer12list_threadss_0B3_
FN:175,_RNCNvCscHyV8aGLwhP_8mdviewer12set_settings0B3_
FN:178,_RNCNvCscHyV8aGLwhP_8mdviewer12set_settingss0_0B3_
FN:177,_RNCNvCscHyV8aGLwhP_8mdviewer12set_settingss_0B3_
FN:199,_RNCNvCscHyV8aGLwhP_8mdviewer13create_thread0B3_
FN:201,_RNCNvCscHyV8aGLwhP_8mdviewer13create_threads_0B3_
FN:709,_RNCNvCscHyV8aGLwhP_8mdviewer13drive_connect0B3_
FN:73,_RNCNvCscHyV8aGLwhP_8mdviewer13open_document0B3_
FN:76,_RNCNvCscHyV8aGLwhP_8mdviewer13open_documents_0B3_
FN:314,_RNCNvCscHyV8aGLwhP_8mdviewer13save_document0B3_
FN:329,_RNCNvCscHyV8aGLwhP_8mdviewer13save_documents0_0B3_
FN:350,_RNCNvCscHyV8aGLwhP_8mdviewer13save_documents1_0B3_
FN:356,_RNCNvCscHyV8aGLwhP_8mdviewer13save_documents2_0B3_
FN:358,_RNCNvCscHyV8aGLwhP_8mdviewer13save_documents3_0B3_
FN:359,_RNCNvCscHyV8aGLwhP_8mdviewer13save_documents4_0B3_
FN:375,_RNCNvCscHyV8aGLwhP_8mdviewer13save_documents5_0B3_
FN:376,_RNCNvCscHyV8aGLwhP_8mdviewer13save_documents6_0B3_
FN:414,_RNCNvCscHyV8aGLwhP_8mdviewer13save_documents7_0B3_
FN:317,_RNCNvCscHyV8aGLwhP_8mdviewer13save_documents_0B3_
FN:780,_RNCNvCscHyV8aGLwhP_8mdviewer14drive_open_url0B3_
FN:614,_RNCNvCscHyV8aGLwhP_8mdviewer14resolve_anchor0B3_
FN:616,_RNCNvCscHyV8aGLwhP_8mdviewer14resolve_anchors_0B3_
FN:245,_RNCNvCscHyV8aGLwhP_8mdviewer14resolve_thread0B3_
FN:250,_RNCNvCscHyV8aGLwhP_8mdviewer14resolve_threads0_0B3_
FN:247,_RNCNvCscHyV8aGLwhP_8mdviewer14resolve_threads_0B3_
FN:517,_RNCNvCscHyV8aGLwhP_8mdviewer15export_document0B3_
FN:521,_RNCNvCscHyV8aGLwhP_8mdviewer15export_documents0_0B3_
FN:527,_RNCNvCscHyV8aGLwhP_8mdviewer15export_documents1_0B3_
FN:532,_RNCNvCscHyV8aGLwhP_8mdviewer15export_documents2_0B3_
FN:534,_RNCNvCscHyV8aGLwhP_8mdviewer15export_documents3_0B3_
FN:542,_RNCNvCscHyV8aGLwhP_8mdviewer15export_documents4_0B3_
FN:544,_RNCNvCscHyV8aGLwhP_8mdviewer15export_documents5_0B3_
FN:518,_RNCNvCscHyV8aGLwhP_8mdviewer15export_documents_0B3_
FN:456,_RNCNvCscHyV8aGLwhP_8mdviewer15import_comments0B3_
FN:461,_RNCNvCscHyV8aGLwhP_8mdviewer15import_commentss0_0B3_
FN:464,_RNCNvCscHyV8aGLwhP_8mdviewer15import_commentss1_0B3_
FN:467,_RNCNvCscHyV8aGLwhP_8mdviewer15import_commentss2_0B3_
FN:472,_RNCNvCscHyV8aGLwhP_8mdviewer15import_commentss3_0B3_
FN:457,_RNCNvCscHyV8aGLwhP_8mdviewer15import_commentss_0B3_
FN:265,_RNCNvCscHyV8aGLwhP_8mdviewer15persist_sidecar0B3_
FN:269,_RNCNvCscHyV8aGLwhP_8mdviewer15persist_sidecars0_0B3_
FN:268,_RNCNvCscHyV8aGLwhP_8mdviewer15persist_sidecars_0B3_
FN:490,_RNCNvCscHyV8aGLwhP_8mdviewer15reload_document0B3_
FN:492,_RNCNvCscHyV8aGLwhP_8mdviewer15reload_documents0_0B3_
FN:496,_RNCNvCscHyV8aGLwhP_8mdviewer15reload_documents1_0B3_
FN:497,_RNCNvCscHyV8aGLwhP_8mdviewer15reload_documents2_0B3_
FN:491,_RNCNvCscHyV8aGLwhP_8mdviewer15reload_documents_0B3_
FN:762,_RNCNvCscHyV8aGLwhP_8mdviewer16drive_disconnect0B3_
FN:560,_RNCNvCscHyV8aGLwhP_8mdviewer16migrate_sidecars0B3_
FN:569,_RNCNvCscHyV8aGLwhP_8mdviewer16migrate_sidecarss0_0B3_
FN:574,_RNCNvCscHyV8aGLwhP_8mdviewer16migrate_sidecarss1_0B3_
FN:580,_RNCNvCscHyV8aGLwhP_8mdviewer16migrate_sidecarss2_0B3_
FN:582,_RNCNvCscHyV8aGLwhP_8mdviewer16migrate_sidecarss3_0B3_
FN:565,_RNCNvCscHyV8aGLwhP_8mdviewer16migrate_sidecarss_0B3_
FN:156,_RNCNvCscHyV8aGLwhP_8mdviewer17get_active_tab_id0B3_
FN:679,_RNCNvCscHyV8aGLwhP_8mdviewer17open_external_urls_0B3_
FN:803,_RNCNvCscHyV8aGLwhP_8mdviewer18drive_resolve_path0B3_
FN:805,_RNCNvCscHyV8aGLwhP_8mdviewer18drive_resolve_paths_0B3_
FN:139,_RNCNvCscHyV8aGLwhP_8mdviewer19list_open_documents0B3_
FN:821,_RNCNvCscHyV8aGLwhP_8mdviewer21is_drive_desktop_path0B3_
FN:815,_RNCNvCscHyV8aGLwhP_8mdviewer23drive_get_collaborators0B3_
FN:817,_RNCNvCscHyV8aGLwhP_8mdviewer23drive_get_collaboratorss_0B3_
FN:869,_RNCNvCscHyV8aGLwhP_8mdviewer4main0B3_
FN:937,_RNCNvCscHyV8aGLwhP_8mdviewer4mains0_0B3_
FN:946,_RNCNvCscHyV8aGLwhP_8mdviewer4mains1_0B3_
FN:1116,_RNCNvCscHyV8aGLwhP_8mdviewer4mains2_0B3_
FN:913,_RNCNvCscHyV8aGLwhP_8mdviewer4mains_0B3_
FN:117,_RNCNvCscHyV8aGLwhP_8mdviewer9close_tab0B3_
FN:119,_RNCNvCscHyV8aGLwhP_8mdviewer9close_tabs_0B3_
FN:215,_RNvCscHyV8aGLwhP_8mdviewer10post_reply
FN:123,_RNvCscHyV8aGLwhP_8mdviewer12activate_tab
FN:771,_RNvCscHyV8aGLwhP_8mdviewer12drive_status
FN:629,_RNvCscHyV8aGLwhP_8mdviewer12get_doc_pref
FN:165,_RNvCscHyV8aGLwhP_8mdviewer12get_settings
FN:160,_RNvCscHyV8aGLwhP_8mdviewer12list_recents
FN:182,_RNvCscHyV8aGLwhP_8mdviewer12list_threads
FN:634,_RNvCscHyV8aGLwhP_8mdviewer12set_doc_pref
FN:170,_RNvCscHyV8aGLwhP_8mdviewer12set_settings
FN:192,_RNvCscHyV8aGLwhP_8mdviewer13create_thread
FN:706,_RNvCscHyV8aGLwhP_8mdviewer13drive_connect
FN:66,_RNvCscHyV8aGLwhP_8mdviewer13open_document
FN:299,_RNvCscHyV8aGLwhP_8mdviewer13save_document
FN:776,_RNvCscHyV8aGLwhP_8mdviewer14drive_open_url
FN:607,_RNvCscHyV8aGLwhP_8mdviewer14resolve_anchor
FN:239,_RNvCscHyV8aGLwhP_8mdviewer14resolve_thread
FN:648,_RNvCscHyV8aGLwhP_8mdviewer15delete_doc_pref
FN:512,_RNvCscHyV8aGLwhP_8mdviewer15export_document
FN:448,_RNvCscHyV8aGLwhP_8mdviewer15import_comments
FN:260,_RNvCscHyV8aGLwhP_8mdviewer15persist_sidecar
FN:486,_RNvCscHyV8aGLwhP_8mdviewer15reload_document
FN:277,_RNvCscHyV8aGLwhP_8mdviewer15render_markdown
FN:759,_RNvCscHyV8aGLwhP_8mdviewer16drive_disconnect
FN:555,_RNvCscHyV8aGLwhP_8mdviewer16migrate_sidecars
FN:152,_RNvCscHyV8aGLwhP_8mdviewer17get_active_tab_id
FN:662,_RNvCscHyV8aGLwhP_8mdviewer17open_external_url
FN:800,_RNvCscHyV8aGLwhP_8mdviewer18drive_resolve_path
FN:132,_RNvCscHyV8aGLwhP_8mdviewer19list_open_documents
FN:821,_RNvCscHyV8aGLwhP_8mdviewer21is_drive_desktop_path
FN:809,_RNvCscHyV8aGLwhP_8mdviewer23drive_get_collaborators
FN:836,_RNvCscHyV8aGLwhP_8mdviewer4main
FN:435,_RNvCscHyV8aGLwhP_8mdviewer7diff_md
FN:61,_RNvCscHyV8aGLwhP_8mdviewer8app_info
FN:114,_RNvCscHyV8aGLwhP_8mdviewer9close_tab
FN:595,_RNvCscHyV8aGLwhP_8mdviewer9set_dirty
FN:1114,_RNCINvNvCs6LdYeyK8eOD_8mdviewer4main5innerINtCs6VGF0pB3O9x_17tauri_runtime_wry3WryNtCsd5Fy4A4IsqN_5tauri16EventLoopMessageENtNtCsd4Zc7PkWai9_11tauri_utils6assets14EmbeddedAssetsE0B6_
FN:1068,_RNCNCNCNvCs6LdYeyK8eOD_8mdviewer4mains1_0s2_00B7_
FN:705,_RNCNCNCNvCs6LdYeyK8eOD_8mdviewer4mains3_0sn_00B7_
FN:758,_RNCNCNCNvCs6LdYeyK8eOD_8mdviewer4mains3_0so_00B7_
FN:775,_RNCNCNCNvCs6LdYeyK8eOD_8mdviewer4mains3_0sq_00B7_
FN:820,_RNCNCNCNvCs6LdYeyK8eOD_8mdviewer4mains3_0st_00B7_
FN:719,_RNCNCNvCs6LdYeyK8eOD_8mdviewer13drive_connect00B5_
FN:736,_RNCNCNvCs6LdYeyK8eOD_8mdviewer13drive_connect0s0_0B5_
FN:737,_RNCNCNvCs6LdYeyK8eOD_8mdviewer13drive_connect0s1_0B5_
FN:749,_RNCNCNvCs6LdYeyK8eOD_8mdviewer13drive_connect0s2_0B5_
FN:734,_RNCNCNvCs6LdYeyK8eOD_8mdviewer13drive_connect0s_0B5_
FN:781,_RNCNCNvCs6LdYeyK8eOD_8mdviewer14drive_open_url00B5_
FN:788,_RNCNCNvCs6LdYeyK8eOD_8mdviewer14drive_open_url0s_0B5_
FN:763,_RNCNCNvCs6LdYeyK8eOD_8mdviewer16drive_disconnect00B5_
FN:156,_RNCNCNvCs6LdYeyK8eOD_8mdviewer17get_active_tab_id00B5_
FN:827,_RNCNCNvCs6LdYeyK8eOD_8mdviewer21is_drive_desktop_path00B5_
FN:1012,_RNCNCNvCs6LdYeyK8eOD_8mdviewer4mains1_00B5_
FN:1017,_RNCNCNvCs6LdYeyK8eOD_8mdviewer4mains1_0s0_0B5_
FN:1047,_RNCNCNvCs6LdYeyK8eOD_8mdviewer4mains1_0s1_0B5_
FN:1058,_RNCNCNvCs6LdYeyK8eOD_8mdviewer4mains1_0s2_0B5_
FN:1016,_RNCNCNvCs6LdYeyK8eOD_8mdviewer4mains1_0s_0B5_
FN:222,_RNCNvCs6LdYeyK8eOD_8mdviewer10post_reply0B3_
FN:234,_RNCNvCs6LdYeyK8eOD_8mdviewer10post_replys0_0B3_
FN:224,_RNCNvCs6LdYeyK8eOD_8mdviewer10post_replys_0B3_
FN:126,_RNCNvCs6LdYeyK8eOD_8mdviewer12activate_tab0B3_
FN:128,_RNCNvCs6LdYeyK8eOD_8mdviewer12activate_tabs_0B3_
FN:185,_RNCNvCs6LdYeyK8eOD_8mdviewer12list_threads0B3_
FN:188,_RNCNvCs6LdYeyK8eOD_8mdviewer12list_threadss0_0B3_
FN:187,_RNCNvCs6LdYeyK8eOD_8mdviewer12list_threadss_0B3_
FN:175,_RNCNvCs6LdYeyK8eOD_8mdviewer12set_settings0B3_
FN:178,_RNCNvCs6LdYeyK8eOD_8mdviewer12set_settingss0_0B3_
FN:177,_RNCNvCs6LdYeyK8eOD_8mdviewer12set_settingss_0B3_
FN:199,_RNCNvCs6LdYeyK8eOD_8mdviewer13create_thread0B3_
FN:201,_RNCNvCs6LdYeyK8eOD_8mdviewer13create_threads_0B3_
FN:709,_RNCNvCs6LdYeyK8eOD_8mdviewer13drive_connect0B3_
FN:73,_RNCNvCs6LdYeyK8eOD_8mdviewer13open_document0B3_
FN:76,_RNCNvCs6LdYeyK8eOD_8mdviewer13open_documents_0B3_
FN:314,_RNCNvCs6LdYeyK8eOD_8mdviewer13save_document0B3_
FN:329,_RNCNvCs6LdYeyK8eOD_8mdviewer13save_documents0_0B3_
FN:350,_RNCNvCs6LdYeyK8eOD_8mdviewer13save_documents1_0B3_
FN:356,_RNCNvCs6LdYeyK8eOD_8mdviewer13save_documents2_0B3_
FN:358,_RNCNvCs6LdYeyK8eOD_8mdviewer13save_documents3_0B3_
FN:359,_RNCNvCs6LdYeyK8eOD_8mdviewer13save_documents4_0B3_
FN:375,_RNCNvCs6LdYeyK8eOD_8mdviewer13save_documents5_0B3_
FN:376,_RNCNvCs6LdYeyK8eOD_8mdviewer13save_documents6_0B3_
FN:414,_RNCNvCs6LdYeyK8eOD_8mdviewer13save_documents7_0B3_
FN:317,_RNCNvCs6LdYeyK8eOD_8mdviewer13save_documents_0B3_
FN:780,_RNCNvCs6LdYeyK8eOD_8mdviewer14drive_open_url0B3_
FN:614,_RNCNvCs6LdYeyK8eOD_8mdviewer14resolve_anchor0B3_
FN:616,_RNCNvCs6LdYeyK8eOD_8mdviewer14resolve_anchors_0B3_
FN:245,_RNCNvCs6LdYeyK8eOD_8mdviewer14resolve_thread0B3_
FN:250,_RNCNvCs6LdYeyK8eOD_8mdviewer14resolve_threads0_0B3_
FN:247,_RNCNvCs6LdYeyK8eOD_8mdviewer14resolve_threads_0B3_
FN:517,_RNCNvCs6LdYeyK8eOD_8mdviewer15export_document0B3_
FN:521,_RNCNvCs6LdYeyK8eOD_8mdviewer15export_documents0_0B3_
FN:527,_RNCNvCs6LdYeyK8eOD_8mdviewer15export_documents1_0B3_
FN:532,_RNCNvCs6LdYeyK8eOD_8mdviewer15export_documents2_0B3_
FN:534,_RNCNvCs6LdYeyK8eOD_8mdviewer15export_documents3_0B3_
FN:542,_RNCNvCs6LdYeyK8eOD_8mdviewer15export_documents4_0B3_
FN:544,_RNCNvCs6LdYeyK8eOD_8mdviewer15export_documents5_0B3_
FN:518,_RNCNvCs6LdYeyK8eOD_8mdviewer15export_documents_0B3_
FN:456,_RNCNvCs6LdYeyK8eOD_8mdviewer15import_comments0B3_
FN:461,_RNCNvCs6LdYeyK8eOD_8mdviewer15import_commentss0_0B3_
FN:464,_RNCNvCs6LdYeyK8eOD_8mdviewer15import_commentss1_0B3_
FN:467,_RNCNvCs6LdYeyK8eOD_8mdviewer15import_commentss2_0B3_
FN:472,_RNCNvCs6LdYeyK8eOD_8mdviewer15import_commentss3_0B3_
FN:457,_RNCNvCs6LdYeyK8eOD_8mdviewer15import_commentss_0B3_
FN:265,_RNCNvCs6LdYeyK8eOD_8mdviewer15persist_sidecar0B3_
FN:269,_RNCNvCs6LdYeyK8eOD_8mdviewer15persist_sidecars0_0B3_
FN:268,_RNCNvCs6LdYeyK8eOD_8mdviewer15persist_sidecars_0B3_
FN:490,_RNCNvCs6LdYeyK8eOD_8mdviewer15reload_document0B3_
FN:492,_RNCNvCs6LdYeyK8eOD_8mdviewer15reload_documents0_0B3_
FN:496,_RNCNvCs6LdYeyK8eOD_8mdviewer15reload_documents1_0B3_
FN:497,_RNCNvCs6LdYeyK8eOD_8mdviewer15reload_documents2_0B3_
FN:491,_RNCNvCs6LdYeyK8eOD_8mdviewer15reload_documents_0B3_
FN:762,_RNCNvCs6LdYeyK8eOD_8mdviewer16drive_disconnect0B3_
FN:560,_RNCNvCs6LdYeyK8eOD_8mdviewer16migrate_sidecars0B3_
FN:569,_RNCNvCs6LdYeyK8eOD_8mdviewer16migrate_sidecarss0_0B3_
FN:574,_RNCNvCs6LdYeyK8eOD_8mdviewer16migrate_sidecarss1_0B3_
FN:580,_RNCNvCs6LdYeyK8eOD_8mdviewer16migrate_sidecarss2_0B3_
FN:582,_RNCNvCs6LdYeyK8eOD_8mdviewer16migrate_sidecarss3_0B3_
FN:565,_RNCNvCs6LdYeyK8eOD_8mdviewer16migrate_sidecarss_0B3_
FN:156,_RNCNvCs6LdYeyK8eOD_8mdviewer17get_active_tab_id0B3_
FN:679,_RNCNvCs6LdYeyK8eOD_8mdviewer17open_external_urls_0B3_
FN:803,_RNCNvCs6LdYeyK8eOD_8mdviewer18drive_resolve_path0B3_
FN:805,_RNCNvCs6LdYeyK8eOD_8mdviewer18drive_resolve_paths_0B3_
FN:139,_RNCNvCs6LdYeyK8eOD_8mdviewer19list_open_documents0B3_
FN:821,_RNCNvCs6LdYeyK8eOD_8mdviewer21is_drive_desktop_path0B3_
FN:815,_RNCNvCs6LdYeyK8eOD_8mdviewer23drive_get_collaborators0B3_
FN:817,_RNCNvCs6LdYeyK8eOD_8mdviewer23drive_get_collaboratorss_0B3_
FN:869,_RNCNvCs6LdYeyK8eOD_8mdviewer4main0B3_
FN:937,_RNCNvCs6LdYeyK8eOD_8mdviewer4mains0_0B3_
FN:946,_RNCNvCs6LdYeyK8eOD_8mdviewer4mains1_0B3_
FN:1116,_RNCNvCs6LdYeyK8eOD_8mdviewer4mains2_0B3_
FN:913,_RNCNvCs6LdYeyK8eOD_8mdviewer4mains_0B3_
FN:117,_RNCNvCs6LdYeyK8eOD_8mdviewer9close_tab0B3_
FN:119,_RNCNvCs6LdYeyK8eOD_8mdviewer9close_tabs_0B3_
FN:215,_RNvCs6LdYeyK8eOD_8mdviewer10post_reply
FN:123,_RNvCs6LdYeyK8eOD_8mdviewer12activate_tab
FN:771,_RNvCs6LdYeyK8eOD_8mdviewer12drive_status
FN:629,_RNvCs6LdYeyK8eOD_8mdviewer12get_doc_pref
FN:165,_RNvCs6LdYeyK8eOD_8mdviewer12get_settings
FN:160,_RNvCs6LdYeyK8eOD_8mdviewer12list_recents
FN:182,_RNvCs6LdYeyK8eOD_8mdviewer12list_threads
FN:634,_RNvCs6LdYeyK8eOD_8mdviewer12set_doc_pref
FN:170,_RNvCs6LdYeyK8eOD_8mdviewer12set_settings
FN:192,_RNvCs6LdYeyK8eOD_8mdviewer13create_thread
FN:706,_RNvCs6LdYeyK8eOD_8mdviewer13drive_connect
FN:66,_RNvCs6LdYeyK8eOD_8mdviewer13open_document
FN:299,_RNvCs6LdYeyK8eOD_8mdviewer13save_document
FN:776,_RNvCs6LdYeyK8eOD_8mdviewer14drive_open_url
FN:607,_RNvCs6LdYeyK8eOD_8mdviewer14resolve_anchor
FN:239,_RNvCs6LdYeyK8eOD_8mdviewer14resolve_thread
FN:648,_RNvCs6LdYeyK8eOD_8mdviewer15delete_doc_pref
FN:512,_RNvCs6LdYeyK8eOD_8mdviewer15export_document
FN:448,_RNvCs6LdYeyK8eOD_8mdviewer15import_comments
FN:260,_RNvCs6LdYeyK8eOD_8mdviewer15persist_sidecar
FN:486,_RNvCs6LdYeyK8eOD_8mdviewer15reload_document
FN:277,_RNvCs6LdYeyK8eOD_8mdviewer15render_markdown
FN:759,_RNvCs6LdYeyK8eOD_8mdviewer16drive_disconnect
FN:555,_RNvCs6LdYeyK8eOD_8mdviewer16migrate_sidecars
FN:152,_RNvCs6LdYeyK8eOD_8mdviewer17get_active_tab_id
FN:662,_RNvCs6LdYeyK8eOD_8mdviewer17open_external_url
FN:800,_RNvCs6LdYeyK8eOD_8mdviewer18drive_resolve_path
FN:132,_RNvCs6LdYeyK8eOD_8mdviewer19list_open_documents
FN:821,_RNvCs6LdYeyK8eOD_8mdviewer21is_drive_desktop_path
FN:809,_RNvCs6LdYeyK8eOD_8mdviewer23drive_get_collaborators
FN:836,_RNvCs6LdYeyK8eOD_8mdviewer4main
FN:435,_RNvCs6LdYeyK8eOD_8mdviewer7diff_md
FN:61,_RNvCs6LdYeyK8eOD_8mdviewer8app_info
FN:114,_RNvCs6LdYeyK8eOD_8mdviewer9close_tab
FN:595,_RNvCs6LdYeyK8eOD_8mdviewer9set_dirty
FNDA:0,_RNCINvNvCscHyV8aGLwhP_8mdviewer4main5innerppE0B6_
FNDA:0,_RNCNCNCNvCscHyV8aGLwhP_8mdviewer4mains1_0s2_00B7_
FNDA:0,_RNCNCNCNvCscHyV8aGLwhP_8mdviewer4mains3_0sn_00B7_
FNDA:0,_RNCNCNCNvCscHyV8aGLwhP_8mdviewer4mains3_0so_00B7_
FNDA:0,_RNCNCNCNvCscHyV8aGLwhP_8mdviewer4mains3_0sq_00B7_
FNDA:0,_RNCNCNCNvCscHyV8aGLwhP_8mdviewer4mains3_0st_00B7_
FNDA:0,_RNCNCNvCscHyV8aGLwhP_8mdviewer13drive_connect00B5_
FNDA:0,_RNCNCNvCscHyV8aGLwhP_8mdviewer13drive_connect0s0_0B5_
FNDA:0,_RNCNCNvCscHyV8aGLwhP_8mdviewer13drive_connect0s1_0B5_
FNDA:0,_RNCNCNvCscHyV8aGLwhP_8mdviewer13drive_connect0s2_0B5_
FNDA:0,_RNCNCNvCscHyV8aGLwhP_8mdviewer13drive_connect0s_0B5_
FNDA:0,_RNCNCNvCscHyV8aGLwhP_8mdviewer14drive_open_url00B5_
FNDA:0,_RNCNCNvCscHyV8aGLwhP_8mdviewer14drive_open_url0s_0B5_
FNDA:0,_RNCNCNvCscHyV8aGLwhP_8mdviewer16drive_disconnect00B5_
FNDA:0,_RNCNCNvCscHyV8aGLwhP_8mdviewer17get_active_tab_id00B5_
FNDA:0,_RNCNCNvCscHyV8aGLwhP_8mdviewer21is_drive_desktop_path00B5_
FNDA:0,_RNCNCNvCscHyV8aGLwhP_8mdviewer4mains1_00B5_
FNDA:0,_RNCNCNvCscHyV8aGLwhP_8mdviewer4mains1_0s0_0B5_
FNDA:0,_RNCNCNvCscHyV8aGLwhP_8mdviewer4mains1_0s1_0B5_
FNDA:0,_RNCNCNvCscHyV8aGLwhP_8mdviewer4mains1_0s2_0B5_
FNDA:0,_RNCNCNvCscHyV8aGLwhP_8mdviewer4mains1_0s_0B5_
FNDA:0,_RNCNvCscHyV8aGLwhP_8mdviewer10post_reply0B3_
FNDA:0,_RNCNvCscHyV8aGLwhP_8mdviewer10post_replys0_0B3_
FNDA:0,_RNCNvCscHyV8aGLwhP_8mdviewer10post_replys_0B3_
FNDA:0,_RNCNvCscHyV8aGLwhP_8mdviewer12activate_tab0B3_
FNDA:0,_RNCNvCscHyV8aGLwhP_8mdviewer12activate_tabs_0B3_
FNDA:0,_RNCNvCscHyV8aGLwhP_8mdviewer12list_threads0B3_
FNDA:0,_RNCNvCscHyV8aGLwhP_8mdviewer12list_threadss0_0B3_
FNDA:0,_RNCNvCscHyV8aGLwhP_8mdviewer12list_threadss_0B3_
FNDA:0,_RNCNvCscHyV8aGLwhP_8mdviewer12set_settings0B3_
FNDA:0,_RNCNvCscHyV8aGLwhP_8mdviewer12set_settingss0_0B3_
FNDA:0,_RNCNvCscHyV8aGLwhP_8mdviewer12set_settingss_0B3_
FNDA:0,_RNCNvCscHyV8aGLwhP_8mdviewer13create_thread0B3_
FNDA:0,_RNCNvCscHyV8aGLwhP_8mdviewer13create_threads_0B3_
FNDA:0,_RNCNvCscHyV8aGLwhP_8mdviewer13drive_connect0B3_
FNDA:0,_RNCNvCscHyV8aGLwhP_8mdviewer13open_document0B3_
FNDA:0,_RNCNvCscHyV8aGLwhP_8mdviewer13open_documents_0B3_
FNDA:0,_RNCNvCscHyV8aGLwhP_8mdviewer13save_document0B3_
FNDA:0,_RNCNvCscHyV8aGLwhP_8mdviewer13save_documents0_0B3_
FNDA:0,_RNCNvCscHyV8aGLwhP_8mdviewer13save_documents1_0B3_
FNDA:0,_RNCNvCscHyV8aGLwhP_8mdviewer13save_documents2_0B3_
FNDA:0,_RNCNvCscHyV8aGLwhP_8mdviewer13save_documents3_0B3_
FNDA:0,_RNCNvCscHyV8aGLwhP_8mdviewer13save_documents4_0B3_
FNDA:0,_RNCNvCscHyV8aGLwhP_8mdviewer13save_documents5_0B3_
FNDA:0,_RNCNvCscHyV8aGLwhP_8mdviewer13save_documents6_0B3_
FNDA:0,_RNCNvCscHyV8aGLwhP_8mdviewer13save_documents7_0B3_
FNDA:0,_RNCNvCscHyV8aGLwhP_8mdviewer13save_documents_0B3_
FNDA:0,_RNCNvCscHyV8aGLwhP_8mdviewer14drive_open_url0B3_
FNDA:0,_RNCNvCscHyV8aGLwhP_8mdviewer14resolve_anchor0B3_
FNDA:0,_RNCNvCscHyV8aGLwhP_8mdviewer14resolve_anchors_0B3_
FNDA:0,_RNCNvCscHyV8aGLwhP_8mdviewer14resolve_thread0B3_
FNDA:0,_RNCNvCscHyV8aGLwhP_8mdviewer14resolve_threads0_0B3_
FNDA:0,_RNCNvCscHyV8aGLwhP_8mdviewer14resolve_threads_0B3_
FNDA:0,_RNCNvCscHyV8aGLwhP_8mdviewer15export_document0B3_
FNDA:0,_RNCNvCscHyV8aGLwhP_8mdviewer15export_documents0_0B3_
FNDA:0,_RNCNvCscHyV8aGLwhP_8mdviewer15export_documents1_0B3_
FNDA:0,_RNCNvCscHyV8aGLwhP_8mdviewer15export_documents2_0B3_
FNDA:0,_RNCNvCscHyV8aGLwhP_8mdviewer15export_documents3_0B3_
FNDA:0,_RNCNvCscHyV8aGLwhP_8mdviewer15export_documents4_0B3_
FNDA:0,_RNCNvCscHyV8aGLwhP_8mdviewer15export_documents5_0B3_
FNDA:0,_RNCNvCscHyV8aGLwhP_8mdviewer15export_documents_0B3_
FNDA:0,_RNCNvCscHyV8aGLwhP_8mdviewer15import_comments0B3_
FNDA:0,_RNCNvCscHyV8aGLwhP_8mdviewer15import_commentss0_0B3_
FNDA:0,_RNCNvCscHyV8aGLwhP_8mdviewer15import_commentss1_0B3_
FNDA:0,_RNCNvCscHyV8aGLwhP_8mdviewer15import_commentss2_0B3_
FNDA:0,_RNCNvCscHyV8aGLwhP_8mdviewer15import_commentss3_0B3_
FNDA:0,_RNCNvCscHyV8aGLwhP_8mdviewer15import_commentss_0B3_
FNDA:0,_RNCNvCscHyV8aGLwhP_8mdviewer15persist_sidecar0B3_
FNDA:0,_RNCNvCscHyV8aGLwhP_8mdviewer15persist_sidecars0_0B3_
FNDA:0,_RNCNvCscHyV8aGLwhP_8mdviewer15persist_sidecars_0B3_
FNDA:0,_RNCNvCscHyV8aGLwhP_8mdviewer15reload_document0B3_
FNDA:0,_RNCNvCscHyV8aGLwhP_8mdviewer15reload_documents0_0B3_
FNDA:0,_RNCNvCscHyV8aGLwhP_8mdviewer15reload_documents1_0B3_
FNDA:0,_RNCNvCscHyV8aGLwhP_8mdviewer15reload_documents2_0B3_
FNDA:0,_RNCNvCscHyV8aGLwhP_8mdviewer15reload_documents_0B3_
FNDA:0,_RNCNvCscHyV8aGLwhP_8mdviewer16drive_disconnect0B3_
FNDA:0,_RNCNvCscHyV8aGLwhP_8mdviewer16migrate_sidecars0B3_
FNDA:0,_RNCNvCscHyV8aGLwhP_8mdviewer16migrate_sidecarss0_0B3_
FNDA:0,_RNCNvCscHyV8aGLwhP_8mdviewer16migrate_sidecarss1_0B3_
FNDA:0,_RNCNvCscHyV8aGLwhP_8mdviewer16migrate_sidecarss2_0B3_
FNDA:0,_RNCNvCscHyV8aGLwhP_8mdviewer16migrate_sidecarss3_0B3_
FNDA:0,_RNCNvCscHyV8aGLwhP_8mdviewer16migrate_sidecarss_0B3_
FNDA:0,_RNCNvCscHyV8aGLwhP_8mdviewer17get_active_tab_id0B3_
FNDA:0,_RNCNvCscHyV8aGLwhP_8mdviewer17open_external_urls_0B3_
FNDA:0,_RNCNvCscHyV8aGLwhP_8mdviewer18drive_resolve_path0B3_
FNDA:0,_RNCNvCscHyV8aGLwhP_8mdviewer18drive_resolve_paths_0B3_
FNDA:0,_RNCNvCscHyV8aGLwhP_8mdviewer19list_open_documents0B3_
FNDA:0,_RNCNvCscHyV8aGLwhP_8mdviewer21is_drive_desktop_path0B3_
FNDA:0,_RNCNvCscHyV8aGLwhP_8mdviewer23drive_get_collaborators0B3_
FNDA:0,_RNCNvCscHyV8aGLwhP_8mdviewer23drive_get_collaboratorss_0B3_
FNDA:0,_RNCNvCscHyV8aGLwhP_8mdviewer4main0B3_
FNDA:0,_RNCNvCscHyV8aGLwhP_8mdviewer4mains0_0B3_
FNDA:0,_RNCNvCscHyV8aGLwhP_8mdviewer4mains1_0B3_
FNDA:0,_RNCNvCscHyV8aGLwhP_8mdviewer4mains2_0B3_
FNDA:0,_RNCNvCscHyV8aGLwhP_8mdviewer4mains_0B3_
FNDA:0,_RNCNvCscHyV8aGLwhP_8mdviewer9close_tab0B3_
FNDA:0,_RNCNvCscHyV8aGLwhP_8mdviewer9close_tabs_0B3_
FNDA:0,_RNvCscHyV8aGLwhP_8mdviewer10post_reply
FNDA:0,_RNvCscHyV8aGLwhP_8mdviewer12activate_tab
FNDA:0,_RNvCscHyV8aGLwhP_8mdviewer12drive_status
FNDA:0,_RNvCscHyV8aGLwhP_8mdviewer12get_doc_pref
FNDA:0,_RNvCscHyV8aGLwhP_8mdviewer12get_settings
FNDA:0,_RNvCscHyV8aGLwhP_8mdviewer12list_recents
FNDA:0,_RNvCscHyV8aGLwhP_8mdviewer12list_threads
FNDA:0,_RNvCscHyV8aGLwhP_8mdviewer12set_doc_pref
FNDA:0,_RNvCscHyV8aGLwhP_8mdviewer12set_settings
FNDA:0,_RNvCscHyV8aGLwhP_8mdviewer13create_thread
FNDA:0,_RNvCscHyV8aGLwhP_8mdviewer13drive_connect
FNDA:0,_RNvCscHyV8aGLwhP_8mdviewer13open_document
FNDA:0,_RNvCscHyV8aGLwhP_8mdviewer13save_document
FNDA:0,_RNvCscHyV8aGLwhP_8mdviewer14drive_open_url
FNDA:0,_RNvCscHyV8aGLwhP_8mdviewer14resolve_anchor
FNDA:0,_RNvCscHyV8aGLwhP_8mdviewer14resolve_thread
FNDA:0,_RNvCscHyV8aGLwhP_8mdviewer15delete_doc_pref
FNDA:0,_RNvCscHyV8aGLwhP_8mdviewer15export_document
FNDA:0,_RNvCscHyV8aGLwhP_8mdviewer15import_comments
FNDA:0,_RNvCscHyV8aGLwhP_8mdviewer15persist_sidecar
FNDA:0,_RNvCscHyV8aGLwhP_8mdviewer15reload_document
FNDA:0,_RNvCscHyV8aGLwhP_8mdviewer15render_markdown
FNDA:0,_RNvCscHyV8aGLwhP_8mdviewer16drive_disconnect
FNDA:0,_RNvCscHyV8aGLwhP_8mdviewer16migrate_sidecars
FNDA:0,_RNvCscHyV8aGLwhP_8mdviewer17get_active_tab_id
FNDA:0,_RNvCscHyV8aGLwhP_8mdviewer17open_external_url
FNDA:0,_RNvCscHyV8aGLwhP_8mdviewer18drive_resolve_path
FNDA:0,_RNvCscHyV8aGLwhP_8mdviewer19list_open_documents
FNDA:0,_RNvCscHyV8aGLwhP_8mdviewer21is_drive_desktop_path
FNDA:0,_RNvCscHyV8aGLwhP_8mdviewer23drive_get_collaborators
FNDA:0,_RNvCscHyV8aGLwhP_8mdviewer4main
FNDA:0,_RNvCscHyV8aGLwhP_8mdviewer7diff_md
FNDA:0,_RNvCscHyV8aGLwhP_8mdviewer8app_info
FNDA:0,_RNvCscHyV8aGLwhP_8mdviewer9close_tab
FNDA:0,_RNvCscHyV8aGLwhP_8mdviewer9set_dirty
FNDA:0,_RNCINvNvCs6LdYeyK8eOD_8mdviewer4main5innerINtCs6VGF0pB3O9x_17tauri_runtime_wry3WryNtCsd5Fy4A4IsqN_5tauri16EventLoopMessageENtNtCsd4Zc7PkWai9_11tauri_utils6assets14EmbeddedAssetsE0B6_
FNDA:0,_RNCNCNCNvCs6LdYeyK8eOD_8mdviewer4mains1_0s2_00B7_
FNDA:0,_RNCNCNCNvCs6LdYeyK8eOD_8mdviewer4mains3_0sn_00B7_
FNDA:0,_RNCNCNCNvCs6LdYeyK8eOD_8mdviewer4mains3_0so_00B7_
FNDA:0,_RNCNCNCNvCs6LdYeyK8eOD_8mdviewer4mains3_0sq_00B7_
FNDA:0,_RNCNCNCNvCs6LdYeyK8eOD_8mdviewer4mains3_0st_00B7_
FNDA:0,_RNCNCNvCs6LdYeyK8eOD_8mdviewer13drive_connect00B5_
FNDA:0,_RNCNCNvCs6LdYeyK8eOD_8mdviewer13drive_connect0s0_0B5_
FNDA:0,_RNCNCNvCs6LdYeyK8eOD_8mdviewer13drive_connect0s1_0B5_
FNDA:0,_RNCNCNvCs6LdYeyK8eOD_8mdviewer13drive_connect0s2_0B5_
FNDA:0,_RNCNCNvCs6LdYeyK8eOD_8mdviewer13drive_connect0s_0B5_
FNDA:0,_RNCNCNvCs6LdYeyK8eOD_8mdviewer14drive_open_url00B5_
FNDA:0,_RNCNCNvCs6LdYeyK8eOD_8mdviewer14drive_open_url0s_0B5_
FNDA:0,_RNCNCNvCs6LdYeyK8eOD_8mdviewer16drive_disconnect00B5_
FNDA:0,_RNCNCNvCs6LdYeyK8eOD_8mdviewer17get_active_tab_id00B5_
FNDA:0,_RNCNCNvCs6LdYeyK8eOD_8mdviewer21is_drive_desktop_path00B5_
FNDA:0,_RNCNCNvCs6LdYeyK8eOD_8mdviewer4mains1_00B5_
FNDA:0,_RNCNCNvCs6LdYeyK8eOD_8mdviewer4mains1_0s0_0B5_
FNDA:0,_RNCNCNvCs6LdYeyK8eOD_8mdviewer4mains1_0s1_0B5_
FNDA:0,_RNCNCNvCs6LdYeyK8eOD_8mdviewer4mains1_0s2_0B5_
FNDA:0,_RNCNCNvCs6LdYeyK8eOD_8mdviewer4mains1_0s_0B5_
FNDA:0,_RNCNvCs6LdYeyK8eOD_8mdviewer10post_reply0B3_
FNDA:0,_RNCNvCs6LdYeyK8eOD_8mdviewer10post_replys0_0B3_
FNDA:0,_RNCNvCs6LdYeyK8eOD_8mdviewer10post_replys_0B3_
FNDA:0,_RNCNvCs6LdYeyK8eOD_8mdviewer12activate_tab0B3_
FNDA:0,_RNCNvCs6LdYeyK8eOD_8mdviewer12activate_tabs_0B3_
FNDA:0,_RNCNvCs6LdYeyK8eOD_8mdviewer12list_threads0B3_
FNDA:0,_RNCNvCs6LdYeyK8eOD_8mdviewer12list_threadss0_0B3_
FNDA:0,_RNCNvCs6LdYeyK8eOD_8mdviewer12list_threadss_0B3_
FNDA:0,_RNCNvCs6LdYeyK8eOD_8mdviewer12set_settings0B3_
FNDA:0,_RNCNvCs6LdYeyK8eOD_8mdviewer12set_settingss0_0B3_
FNDA:0,_RNCNvCs6LdYeyK8eOD_8mdviewer12set_settingss_0B3_
FNDA:0,_RNCNvCs6LdYeyK8eOD_8mdviewer13create_thread0B3_
FNDA:0,_RNCNvCs6LdYeyK8eOD_8mdviewer13create_threads_0B3_
FNDA:0,_RNCNvCs6LdYeyK8eOD_8mdviewer13drive_connect0B3_
FNDA:0,_RNCNvCs6LdYeyK8eOD_8mdviewer13open_document0B3_
FNDA:0,_RNCNvCs6LdYeyK8eOD_8mdviewer13open_documents_0B3_
FNDA:0,_RNCNvCs6LdYeyK8eOD_8mdviewer13save_document0B3_
FNDA:0,_RNCNvCs6LdYeyK8eOD_8mdviewer13save_documents0_0B3_
FNDA:0,_RNCNvCs6LdYeyK8eOD_8mdviewer13save_documents1_0B3_
FNDA:0,_RNCNvCs6LdYeyK8eOD_8mdviewer13save_documents2_0B3_
FNDA:0,_RNCNvCs6LdYeyK8eOD_8mdviewer13save_documents3_0B3_
FNDA:0,_RNCNvCs6LdYeyK8eOD_8mdviewer13save_documents4_0B3_
FNDA:0,_RNCNvCs6LdYeyK8eOD_8mdviewer13save_documents5_0B3_
FNDA:0,_RNCNvCs6LdYeyK8eOD_8mdviewer13save_documents6_0B3_
FNDA:0,_RNCNvCs6LdYeyK8eOD_8mdviewer13save_documents7_0B3_
FNDA:0,_RNCNvCs6LdYeyK8eOD_8mdviewer13save_documents_0B3_
FNDA:0,_RNCNvCs6LdYeyK8eOD_8mdviewer14drive_open_url0B3_
FNDA:0,_RNCNvCs6LdYeyK8eOD_8mdviewer14resolve_anchor0B3_
FNDA:0,_RNCNvCs6LdYeyK8eOD_8mdviewer14resolve_anchors_0B3_
FNDA:0,_RNCNvCs6LdYeyK8eOD_8mdviewer14resolve_thread0B3_
FNDA:0,_RNCNvCs6LdYeyK8eOD_8mdviewer14resolve_threads0_0B3_
FNDA:0,_RNCNvCs6LdYeyK8eOD_8mdviewer14resolve_threads_0B3_
FNDA:0,_RNCNvCs6LdYeyK8eOD_8mdviewer15export_document0B3_
FNDA:0,_RNCNvCs6LdYeyK8eOD_8mdviewer15export_documents0_0B3_
FNDA:0,_RNCNvCs6LdYeyK8eOD_8mdviewer15export_documents1_0B3_
FNDA:0,_RNCNvCs6LdYeyK8eOD_8mdviewer15export_documents2_0B3_
FNDA:0,_RNCNvCs6LdYeyK8eOD_8mdviewer15export_documents3_0B3_
FNDA:0,_RNCNvCs6LdYeyK8eOD_8mdviewer15export_documents4_0B3_
FNDA:0,_RNCNvCs6LdYeyK8eOD_8mdviewer15export_documents5_0B3_
FNDA:0,_RNCNvCs6LdYeyK8eOD_8mdviewer15export_documents_0B3_
FNDA:0,_RNCNvCs6LdYeyK8eOD_8mdviewer15import_comments0B3_
FNDA:0,_RNCNvCs6LdYeyK8eOD_8mdviewer15import_commentss0_0B3_
FNDA:0,_RNCNvCs6LdYeyK8eOD_8mdviewer15import_commentss1_0B3_
FNDA:0,_RNCNvCs6LdYeyK8eOD_8mdviewer15import_commentss2_0B3_
FNDA:0,_RNCNvCs6LdYeyK8eOD_8mdviewer15import_commentss3_0B3_
FNDA:0,_RNCNvCs6LdYeyK8eOD_8mdviewer15import_commentss_0B3_
FNDA:0,_RNCNvCs6LdYeyK8eOD_8mdviewer15persist_sidecar0B3_
FNDA:0,_RNCNvCs6LdYeyK8eOD_8mdviewer15persist_sidecars0_0B3_
FNDA:0,_RNCNvCs6LdYeyK8eOD_8mdviewer15persist_sidecars_0B3_
FNDA:0,_RNCNvCs6LdYeyK8eOD_8mdviewer15reload_document0B3_
FNDA:0,_RNCNvCs6LdYeyK8eOD_8mdviewer15reload_documents0_0B3_
FNDA:0,_RNCNvCs6LdYeyK8eOD_8mdviewer15reload_documents1_0B3_
FNDA:0,_RNCNvCs6LdYeyK8eOD_8mdviewer15reload_documents2_0B3_
FNDA:0,_RNCNvCs6LdYeyK8eOD_8mdviewer15reload_documents_0B3_
FNDA:0,_RNCNvCs6LdYeyK8eOD_8mdviewer16drive_disconnect0B3_
FNDA:0,_RNCNvCs6LdYeyK8eOD_8mdviewer16migrate_sidecars0B3_
FNDA:0,_RNCNvCs6LdYeyK8eOD_8mdviewer16migrate_sidecarss0_0B3_
FNDA:0,_RNCNvCs6LdYeyK8eOD_8mdviewer16migrate_sidecarss1_0B3_
FNDA:0,_RNCNvCs6LdYeyK8eOD_8mdviewer16migrate_sidecarss2_0B3_
FNDA:0,_RNCNvCs6LdYeyK8eOD_8mdviewer16migrate_sidecarss3_0B3_
FNDA:0,_RNCNvCs6LdYeyK8eOD_8mdviewer16migrate_sidecarss_0B3_
FNDA:0,_RNCNvCs6LdYeyK8eOD_8mdviewer17get_active_tab_id0B3_
FNDA:0,_RNCNvCs6LdYeyK8eOD_8mdviewer17open_external_urls_0B3_
FNDA:0,_RNCNvCs6LdYeyK8eOD_8mdviewer18drive_resolve_path0B3_
FNDA:0,_RNCNvCs6LdYeyK8eOD_8mdviewer18drive_resolve_paths_0B3_
FNDA:0,_RNCNvCs6LdYeyK8eOD_8mdviewer19list_open_documents0B3_
FNDA:0,_RNCNvCs6LdYeyK8eOD_8mdviewer21is_drive_desktop_path0B3_
FNDA:0,_RNCNvCs6LdYeyK8eOD_8mdviewer23drive_get_collaborators0B3_
FNDA:0,_RNCNvCs6LdYeyK8eOD_8mdviewer23drive_get_collaboratorss_0B3_
FNDA:0,_RNCNvCs6LdYeyK8eOD_8mdviewer4main0B3_
FNDA:0,_RNCNvCs6LdYeyK8eOD_8mdviewer4mains0_0B3_
FNDA:0,_RNCNvCs6LdYeyK8eOD_8mdviewer4mains1_0B3_
FNDA:0,_RNCNvCs6LdYeyK8eOD_8mdviewer4mains2_0B3_
FNDA:0,_RNCNvCs6LdYeyK8eOD_8mdviewer4mains_0B3_
FNDA:0,_RNCNvCs6LdYeyK8eOD_8mdviewer9close_tab0B3_
FNDA:0,_RNCNvCs6LdYeyK8eOD_8mdviewer9close_tabs_0B3_
FNDA:0,_RNvCs6LdYeyK8eOD_8mdviewer10post_reply
FNDA:0,_RNvCs6LdYeyK8eOD_8mdviewer12activate_tab
FNDA:0,_RNvCs6LdYeyK8eOD_8mdviewer12drive_status
FNDA:0,_RNvCs6LdYeyK8eOD_8mdviewer12get_doc_pref
FNDA:0,_RNvCs6LdYeyK8eOD_8mdviewer12get_settings
FNDA:0,_RNvCs6LdYeyK8eOD_8mdviewer12list_recents
FNDA:0,_RNvCs6LdYeyK8eOD_8mdviewer12list_threads
FNDA:0,_RNvCs6LdYeyK8eOD_8mdviewer12set_doc_pref
FNDA:0,_RNvCs6LdYeyK8eOD_8mdviewer12set_settings
FNDA:0,_RNvCs6LdYeyK8eOD_8mdviewer13create_thread
FNDA:0,_RNvCs6LdYeyK8eOD_8mdviewer13drive_connect
FNDA:0,_RNvCs6LdYeyK8eOD_8mdviewer13open_document
FNDA:0,_RNvCs6LdYeyK8eOD_8mdviewer13save_document
FNDA:0,_RNvCs6LdYeyK8eOD_8mdviewer14drive_open_url
FNDA:0,_RNvCs6LdYeyK8eOD_8mdviewer14resolve_anchor
FNDA:0,_RNvCs6LdYeyK8eOD_8mdviewer14resolve_thread
FNDA:0,_RNvCs6LdYeyK8eOD_8mdviewer15delete_doc_pref
FNDA:0,_RNvCs6LdYeyK8eOD_8mdviewer15export_document
FNDA:0,_RNvCs6LdYeyK8eOD_8mdviewer15import_comments
FNDA:0,_RNvCs6LdYeyK8eOD_8mdviewer15persist_sidecar
FNDA:0,_RNvCs6LdYeyK8eOD_8mdviewer15reload_document
FNDA:0,_RNvCs6LdYeyK8eOD_8mdviewer15render_markdown
FNDA:0,_RNvCs6LdYeyK8eOD_8mdviewer16drive_disconnect
FNDA:0,_RNvCs6LdYeyK8eOD_8mdviewer16migrate_sidecars
FNDA:0,_RNvCs6LdYeyK8eOD_8mdviewer17get_active_tab_id
FNDA:0,_RNvCs6LdYeyK8eOD_8mdviewer17open_external_url
FNDA:0,_RNvCs6LdYeyK8eOD_8mdviewer18drive_resolve_path
FNDA:0,_RNvCs6LdYeyK8eOD_8mdviewer19list_open_documents
FNDA:0,_RNvCs6LdYeyK8eOD_8mdviewer21is_drive_desktop_path
FNDA:0,_RNvCs6LdYeyK8eOD_8mdviewer23drive_get_collaborators
FNDA:0,_RNvCs6LdYeyK8eOD_8mdviewer4main
FNDA:0,_RNvCs6LdYeyK8eOD_8mdviewer7diff_md
FNDA:0,_RNvCs6LdYeyK8eOD_8mdviewer8app_info
FNDA:0,_RNvCs6LdYeyK8eOD_8mdviewer9close_tab
FNDA:0,_RNvCs6LdYeyK8eOD_8mdviewer9set_dirty
FNF:132
FNH:0
DA:61,0
DA:62,0
DA:63,0
DA:66,0
DA:67,0
DA:68,0
DA:69,0
DA:70,0
DA:71,0
DA:72,0
DA:73,0
DA:74,0
DA:75,0
DA:76,0
DA:80,0
DA:81,0
DA:82,0
DA:83,0
DA:84,0
DA:85,0
DA:86,0
DA:87,0
DA:88,0
DA:92,0
DA:93,0
DA:94,0
DA:95,0
DA:96,0
DA:97,0
DA:98,0
DA:99,0
DA:100,0
DA:101,0
DA:102,0
DA:103,0
DA:104,0
DA:105,0
DA:106,0
DA:107,0
DA:108,0
DA:109,0
DA:110,0
DA:111,0
DA:114,0
DA:115,0
DA:116,0
DA:117,0
DA:118,0
DA:119,0
DA:120,0
DA:123,0
DA:124,0
DA:125,0
DA:126,0
DA:127,0
DA:128,0
DA:129,0
DA:132,0
DA:133,0
DA:134,0
DA:135,0
DA:136,0
DA:137,0
DA:138,0
DA:139,0
DA:140,0
DA:141,0
DA:142,0
DA:143,0
DA:152,0
DA:153,0
DA:154,0
DA:155,0
DA:156,0
DA:157,0
DA:160,0
DA:161,0
DA:162,0
DA:165,0
DA:166,0
DA:167,0
DA:170,0
DA:173,0
DA:174,0
DA:175,0
DA:176,0
DA:177,0
DA:178,0
DA:179,0
DA:182,0
DA:183,0
DA:184,0
DA:185,0
DA:186,0
DA:187,0
DA:188,0
DA:189,0
DA:192,0
DA:193,0
DA:194,0
DA:195,0
DA:196,0
DA:197,0
DA:198,0
DA:199,0
DA:200,0
DA:201,0
DA:202,0
DA:203,0
DA:204,0
DA:205,0
DA:206,0
DA:207,0
DA:208,0
DA:209,0
DA:210,0
DA:211,0
DA:212,0
DA:215,0
DA:216,0
DA:217,0
DA:218,0
DA:219,0
DA:220,0
DA:221,0
DA:222,0
DA:223,0
DA:224,0
DA:225,0
DA:226,0
DA:227,0
DA:228,0
DA:229,0
DA:230,0
DA:231,0
DA:232,0
DA:234,0
DA:235,0
DA:236,0
DA:239,0
DA:240,0
DA:241,0
DA:242,0
DA:243,0
DA:244,0
DA:245,0
DA:246,0
DA:247,0
DA:248,0
DA:249,0
DA:250,0
DA:251,0
DA:252,0
DA:260,0
DA:261,0
DA:262,0
DA:263,0
DA:264,0
DA:265,0
DA:266,0
DA:267,0
DA:268,0
DA:269,0
DA:270,0
DA:271,0
DA:272,0
DA:273,0
DA:274,0
DA:277,0
DA:278,0
DA:279,0
DA:299,0
DA:300,0
DA:301,0
DA:302,0
DA:303,0
DA:304,0
DA:305,0
DA:313,0
DA:314,0
DA:315,0
DA:316,0
DA:317,0
DA:318,0
DA:329,0
DA:330,0
DA:331,0
DA:332,0
DA:333,0
DA:334,0
DA:335,0
DA:336,0
DA:337,0
DA:338,0
DA:339,0
DA:340,0
DA:342,0
DA:347,0
DA:348,0
DA:349,0
DA:350,0
DA:351,0
DA:352,0
DA:353,0
DA:354,0
DA:356,0
DA:358,0
DA:359,0
DA:360,0
DA:362,0
DA:363,0
DA:364,0
DA:365,0
DA:374,0
DA:375,0
DA:376,0
DA:377,0
DA:378,0
DA:379,0
DA:380,0
DA:381,0
DA:382,0
DA:383,0
DA:384,0
DA:386,0
DA:391,0
DA:392,0
DA:393,0
DA:394,0
DA:395,0
DA:396,0
DA:397,0
DA:399,0
DA:414,0
DA:415,0
DA:416,0
DA:417,0
DA:418,0
DA:419,0
DA:420,0
DA:421,0
DA:422,0
DA:423,0
DA:424,0
DA:426,0
DA:430,0
DA:435,0
DA:436,0
DA:437,0
DA:448,0
DA:449,0
DA:450,0
DA:451,0
DA:452,0
DA:453,0
DA:456,0
DA:457,0
DA:458,0
DA:459,0
DA:460,0
DA:461,0
DA:463,0
DA:464,0
DA:465,0
DA:466,0
DA:467,0
DA:468,0
DA:469,0
DA:470,0
DA:472,0
DA:473,0
DA:474,0
DA:475,0
DA:486,0
DA:487,0
DA:488,0
DA:489,0
DA:490,0
DA:491,0
DA:492,0
DA:493,0
DA:494,0
DA:495,0
DA:496,0
DA:497,0
DA:498,0
DA:499,0
DA:500,0
DA:501,0
DA:502,0
DA:503,0
DA:504,0
DA:505,0
DA:512,0
DA:513,0
DA:514,0
DA:515,0
DA:516,0
DA:517,0
DA:518,0
DA:519,0
DA:520,0
DA:521,0
DA:522,0
DA:525,0
DA:526,0
DA:527,0
DA:529,0
DA:530,0
DA:531,0
DA:532,0
DA:533,0
DA:534,0
DA:535,0
DA:537,0
DA:538,0
DA:539,0
DA:540,0
DA:541,0
DA:542,0
DA:543,0
DA:544,0
DA:545,0
DA:546,0
DA:548,0
DA:549,0
DA:555,0
DA:557,0
DA:558,0
DA:559,0
DA:560,0
DA:561,0
DA:562,0
DA:563,0
DA:564,0
DA:565,0
DA:566,0
DA:567,0
DA:568,0
DA:569,0
DA:573,0
DA:574,0
DA:575,0
DA:576,0
DA:577,0
DA:578,0
DA:579,0
DA:580,0
DA:581,0
DA:582,0
DA:583,0
DA:584,0
DA:586,0
DA:587,0
DA:595,0
DA:596,0
DA:597,0
DA:598,0
DA:599,0
DA:600,0
DA:601,0
DA:602,0
DA:603,0
DA:604,0
DA:607,0
DA:608,0
DA:609,0
DA:610,0
DA:611,0
DA:612,0
DA:613,0
DA:614,0
DA:615,0
DA:616,0
DA:617,0
DA:629,0
DA:630,0
DA:631,0
DA:634,0
DA:640,0
DA:641,0
DA:642,0
DA:643,0
DA:644,0
DA:645,0
DA:648,0
DA:649,0
DA:650,0
DA:651,0
DA:652,0
DA:662,0
DA:663,0
DA:664,0
DA:665,0
DA:666,0
DA:667,0
DA:668,0
DA:669,0
DA:672,0
DA:673,0
DA:674,0
DA:677,0
DA:679,0
DA:680,0
DA:705,0
DA:706,0
DA:707,0
DA:708,0
DA:709,0
DA:718,0
DA:719,0
DA:721,0
DA:722,0
DA:723,0
DA:724,0
DA:730,0
DA:731,0
DA:734,0
DA:736,0
DA:737,0
DA:738,0
DA:739,0
DA:744,0
DA:745,0
DA:746,0
DA:747,0
DA:748,0
DA:749,0
DA:750,0
DA:751,0
DA:752,0
DA:753,0
DA:754,0
DA:755,0
DA:756,0
DA:758,0
DA:759,0
DA:760,0
DA:761,0
DA:762,0
DA:763,0
DA:764,0
DA:765,0
DA:766,0
DA:767,0
DA:768,0
DA:771,0
DA:772,0
DA:773,0
DA:775,0
DA:776,0
DA:777,0
DA:778,0
DA:779,0
DA:780,0
DA:781,0
DA:785,0
DA:786,0
DA:787,0
DA:788,0
DA:789,0
DA:795,0
DA:796,0
DA:797,0
DA:800,0
DA:801,0
DA:802,0
DA:803,0
DA:804,0
DA:805,0
DA:806,0
DA:809,0
DA:810,0
DA:811,0
DA:812,0
DA:813,0
DA:814,0
DA:815,0
DA:816,0
DA:817,0
DA:818,0
DA:820,0
DA:821,0
DA:825,0
DA:826,0
DA:827,0
DA:828,0
DA:829,0
DA:830,0
DA:831,0
DA:832,0
DA:833,0
DA:834,0
DA:836,0
DA:840,0
DA:841,0
DA:842,0
DA:843,0
DA:844,0
DA:845,0
DA:846,0
DA:848,0
DA:849,0
DA:850,0
DA:853,0
DA:855,0
DA:856,0
DA:857,0
DA:859,0
DA:869,0
DA:870,0
DA:871,0
DA:872,0
DA:873,0
DA:874,0
DA:875,0
DA:876,0
DA:878,0
DA:880,0
DA:882,0
DA:886,0
DA:887,0
DA:888,0
DA:891,0
DA:892,0
DA:893,0
DA:894,0
DA:895,0
DA:896,0
DA:913,0
DA:915,0
DA:916,0
DA:917,0
DA:918,0
DA:919,0
DA:920,0
DA:921,0
DA:928,0
DA:936,0
DA:937,0
DA:942,0
DA:943,0
DA:944,0
DA:945,0
DA:946,0
DA:951,0
DA:952,0
DA:953,0
DA:954,0
DA:955,0
DA:957,0
DA:960,0
DA:961,0
DA:962,0
DA:963,0
DA:970,0
DA:971,0
DA:972,0
DA:973,0
DA:974,0
DA:975,0
DA:978,0
DA:979,0
DA:988,0
DA:989,0
DA:990,0
DA:996,0
DA:997,0
DA:998,0
DA:999,0
DA:1000,0
DA:1001,0
DA:1003,0
DA:1009,0
DA:1010,0
DA:1011,0
DA:1012,0
DA:1013,0
DA:1014,0
DA:1015,0
DA:1016,0
DA:1017,0
DA:1018,0
DA:1019,0
DA:1020,0
DA:1021,0
DA:1022,0
DA:1029,0
DA:1030,0
DA:1031,0
DA:1038,0
DA:1039,0
DA:1040,0
DA:1041,0
DA:1042,0
DA:1047,0
DA:1048,0
DA:1049,0
DA:1050,0
DA:1051,0
DA:1057,0
DA:1058,0
DA:1060,0
DA:1061,0
DA:1062,0
DA:1063,0
DA:1064,0
DA:1065,0
DA:1066,0
DA:1067,0
DA:1068,0
DA:1069,0
DA:1070,0
DA:1071,0
DA:1072,0
DA:1073,0
DA:1074,0
DA:1076,0
DA:1077,0
DA:1078,0
DA:1079,0
DA:1114,0
DA:1115,0
DA:1116,0
DA:1151,0
DA:1152,0
DA:1153,0
BRF:0
BRH:0
LF:719
LH:0
end_of_record
SF:/home/ggtest/Work/Claude/MDViewer/.claude/worktrees/mdviewer-android/src-tauri/src/menu.rs
FN:49,_RINvNtCskXOmkMderRI_12mdviewer_lib4menu5buildpEB4_
FN:29,_RNvNtCskXOmkMderRI_12mdviewer_lib4menu17menu_id_to_action
FN:49,_RINvNtCskXOmkMderRI_12mdviewer_lib4menu5buildINtCs6VGF0pB3O9x_17tauri_runtime_wry3WryNtCsd5Fy4A4IsqN_5tauri16EventLoopMessageEECs6LdYeyK8eOD_8mdviewer
FN:49,_RINvNtCs2DXdqaz45d1_12mdviewer_lib4menu5buildpEB4_
FN:205,_RNvNtNtCs2DXdqaz45d1_12mdviewer_lib4menu5testss_28unknown_menu_ids_return_none
FN:183,_RNvNtNtCs2DXdqaz45d1_12mdviewer_lib4menu5testss_32menu_id_action_mapping_is_stable
FN:198,_RNvNtNtCs2DXdqaz45d1_12mdviewer_lib4menu5testss_36menu_id_action_mapping_includes_zoom
FN:29,_RNvNtCs2DXdqaz45d1_12mdviewer_lib4menu17menu_id_to_action
FNDA:0,_RINvNtCskXOmkMderRI_12mdviewer_lib4menu5buildpEB4_
FNDA:0,_RNvNtCskXOmkMderRI_12mdviewer_lib4menu17menu_id_to_action
FNDA:0,_RINvNtCskXOmkMderRI_12mdviewer_lib4menu5buildINtCs6VGF0pB3O9x_17tauri_runtime_wry3WryNtCsd5Fy4A4IsqN_5tauri16EventLoopMessageEECs6LdYeyK8eOD_8mdviewer
FNDA:0,_RINvNtCs2DXdqaz45d1_12mdviewer_lib4menu5buildpEB4_
FNDA:1,_RNvNtNtCs2DXdqaz45d1_12mdviewer_lib4menu5testss_28unknown_menu_ids_return_none
FNDA:1,_RNvNtNtCs2DXdqaz45d1_12mdviewer_lib4menu5testss_32menu_id_action_mapping_is_stable
FNDA:1,_RNvNtNtCs2DXdqaz45d1_12mdviewer_lib4menu5testss_36menu_id_action_mapping_includes_zoom
FNDA:19,_RNvNtCs2DXdqaz45d1_12mdviewer_lib4menu17menu_id_to_action
FNF:5
FNH:4
DA:29,19
DA:30,19
DA:31,19
DA:32,18
DA:33,17
DA:34,16
DA:35,15
DA:36,14
DA:37,13
DA:38,12
DA:39,11
DA:40,10
DA:41,9
DA:43,19
DA:49,0
DA:54,0
DA:55,0
DA:56,0
DA:57,0
DA:58,0
DA:62,0
DA:63,0
DA:64,0
DA:65,0
DA:66,0
DA:67,0
DA:68,0
DA:69,0
DA:70,0
DA:71,0
DA:72,0
DA:74,0
DA:75,0
DA:76,0
DA:80,0
DA:81,0
DA:82,0
DA:83,0
DA:87,0
DA:88,0
DA:89,0
DA:90,0
DA:91,0
DA:95,0
DA:96,0
DA:97,0
DA:98,0
DA:99,0
DA:103,0
DA:104,0
DA:105,0
DA:107,0
DA:108,0
DA:109,0
DA:110,0
DA:111,0
DA:112,0
DA:113,0
DA:114,0
DA:115,0
DA:116,0
DA:117,0
DA:121,0
DA:122,0
DA:123,0
DA:125,0
DA:126,0
DA:127,0
DA:131,0
DA:132,0
DA:133,0
DA:134,0
DA:135,0
DA:139,0
DA:140,0
DA:141,0
DA:142,0
DA:146,0
DA:147,0
DA:148,0
DA:149,0
DA:153,0
DA:154,0
DA:155,0
DA:157,0
DA:158,0
DA:159,0
DA:160,0
DA:161,0
DA:162,0
DA:164,0
DA:165,0
DA:166,0
DA:167,0
DA:168,0
DA:169,0
DA:170,0
DA:171,0
DA:183,1
DA:184,1
DA:185,1
DA:186,1
DA:187,1
DA:188,1
DA:189,1
DA:190,1
DA:191,1
DA:198,1
DA:199,1
DA:200,1
DA:201,1
DA:202,1
DA:205,1
DA:209,9
DA:210,1
DA:211,1
DA:212,1
DA:213,1
DA:214,1
DA:215,1
DA:216,1
DA:217,1
DA:218,1
DA:219,1
DA:220,9
DA:222,1
BRF:0
BRH:0
LF:126
LH:42
end_of_record
SF:/home/ggtest/Work/Claude/MDViewer/.claude/worktrees/mdviewer-android/src-tauri/src/recents.rs
FN:136,_RNCNCNvMNtCskXOmkMderRI_12mdviewer_lib7recentsNtB6_12RecentsStore15list_with_mtime00B8_
FN:138,_RNCNCNvMNtCskXOmkMderRI_12mdviewer_lib7recentsNtB6_12RecentsStore15list_with_mtime0s0_0B8_
FN:137,_RNCNCNvMNtCskXOmkMderRI_12mdviewer_lib7recentsNtB6_12RecentsStore15list_with_mtime0s_0B8_
FN:133,_RNCNvMNtCskXOmkMderRI_12mdviewer_lib7recentsNtB4_12RecentsStore15list_with_mtime0B6_
FN:76,_RNCNvMNtCskXOmkMderRI_12mdviewer_lib7recentsNtB4_12RecentsStore4open0B6_
FN:104,_RNCNvMNtCskXOmkMderRI_12mdviewer_lib7recentsNtB4_12RecentsStore4push0B6_
FN:31,_RNCNvNtCskXOmkMderRI_12mdviewer_lib7recents17canonical_or_self0B5_
FN:128,_RNvMNtCskXOmkMderRI_12mdviewer_lib7recentsNtB2_12RecentsStore15list_with_mtime
FN:121,_RNvMNtCskXOmkMderRI_12mdviewer_lib7recentsNtB2_12RecentsStore4list
FN:66,_RNvMNtCskXOmkMderRI_12mdviewer_lib7recentsNtB2_12RecentsStore4open
FN:101,_RNvMNtCskXOmkMderRI_12mdviewer_lib7recentsNtB2_12RecentsStore4push
FN:30,_RNvNtCskXOmkMderRI_12mdviewer_lib7recents17canonical_or_self
FN:31,_RNCNvNtCs2DXdqaz45d1_12mdviewer_lib7recents17canonical_or_self0B5_
FN:136,_RNCNCNvMNtCs2DXdqaz45d1_12mdviewer_lib7recentsNtB6_12RecentsStore15list_with_mtime00B8_
FN:138,_RNCNCNvMNtCs2DXdqaz45d1_12mdviewer_lib7recentsNtB6_12RecentsStore15list_with_mtime0s0_0B8_
FN:137,_RNCNCNvMNtCs2DXdqaz45d1_12mdviewer_lib7recentsNtB6_12RecentsStore15list_with_mtime0s_0B8_
FN:133,_RNCNvMNtCs2DXdqaz45d1_12mdviewer_lib7recentsNtB4_12RecentsStore15list_with_mtime0B6_
FN:76,_RNCNvMNtCs2DXdqaz45d1_12mdviewer_lib7recentsNtB4_12RecentsStore4open0B6_
FN:104,_RNCNvMNtCs2DXdqaz45d1_12mdviewer_lib7recentsNtB4_12RecentsStore4push0B6_
FN:128,_RNvMNtCs2DXdqaz45d1_12mdviewer_lib7recentsNtB2_12RecentsStore15list_with_mtime
FN:121,_RNvMNtCs2DXdqaz45d1_12mdviewer_lib7recentsNtB2_12RecentsStore4list
FN:66,_RNvMNtCs2DXdqaz45d1_12mdviewer_lib7recentsNtB2_12RecentsStore4open
FN:101,_RNvMNtCs2DXdqaz45d1_12mdviewer_lib7recentsNtB2_12RecentsStore4push
FN:30,_RNvNtCs2DXdqaz45d1_12mdviewer_lib7recents17canonical_or_self
FNDA:0,_RNCNCNvMNtCskXOmkMderRI_12mdviewer_lib7recentsNtB6_12RecentsStore15list_with_mtime00B8_
FNDA:0,_RNCNCNvMNtCskXOmkMderRI_12mdviewer_lib7recentsNtB6_12RecentsStore15list_with_mtime0s0_0B8_
FNDA:0,_RNCNCNvMNtCskXOmkMderRI_12mdviewer_lib7recentsNtB6_12RecentsStore15list_with_mtime0s_0B8_
FNDA:0,_RNCNvMNtCskXOmkMderRI_12mdviewer_lib7recentsNtB4_12RecentsStore15list_with_mtime0B6_
FNDA:2,_RNCNvMNtCskXOmkMderRI_12mdviewer_lib7recentsNtB4_12RecentsStore4open0B6_
FNDA:100,_RNCNvMNtCskXOmkMderRI_12mdviewer_lib7recentsNtB4_12RecentsStore4push0B6_
FNDA:8,_RNCNvNtCskXOmkMderRI_12mdviewer_lib7recents17canonical_or_self0B5_
FNDA:0,_RNvMNtCskXOmkMderRI_12mdviewer_lib7recentsNtB2_12RecentsStore15list_with_mtime
FNDA:6,_RNvMNtCskXOmkMderRI_12mdviewer_lib7recentsNtB2_12RecentsStore4list
FNDA:47,_RNvMNtCskXOmkMderRI_12mdviewer_lib7recentsNtB2_12RecentsStore4open
FNDA:37,_RNvMNtCskXOmkMderRI_12mdviewer_lib7recentsNtB2_12RecentsStore4push
FNDA:121,_RNvNtCskXOmkMderRI_12mdviewer_lib7recents17canonical_or_self
FNDA:4,_RNCNvNtCs2DXdqaz45d1_12mdviewer_lib7recents17canonical_or_self0B5_
FNDA:0,_RNCNCNvMNtCs2DXdqaz45d1_12mdviewer_lib7recentsNtB6_12RecentsStore15list_with_mtime00B8_
FNDA:0,_RNCNCNvMNtCs2DXdqaz45d1_12mdviewer_lib7recentsNtB6_12RecentsStore15list_with_mtime0s0_0B8_
FNDA:0,_RNCNCNvMNtCs2DXdqaz45d1_12mdviewer_lib7recentsNtB6_12RecentsStore15list_with_mtime0s_0B8_
FNDA:0,_RNCNvMNtCs2DXdqaz45d1_12mdviewer_lib7recentsNtB4_12RecentsStore15list_with_mtime0B6_
FNDA:0,_RNCNvMNtCs2DXdqaz45d1_12mdviewer_lib7recentsNtB4_12RecentsStore4open0B6_
FNDA:0,_RNCNvMNtCs2DXdqaz45d1_12mdviewer_lib7recentsNtB4_12RecentsStore4push0B6_
FNDA:0,_RNvMNtCs2DXdqaz45d1_12mdviewer_lib7recentsNtB2_12RecentsStore15list_with_mtime
FNDA:0,_RNvMNtCs2DXdqaz45d1_12mdviewer_lib7recentsNtB2_12RecentsStore4list
FNDA:0,_RNvMNtCs2DXdqaz45d1_12mdviewer_lib7recentsNtB2_12RecentsStore4open
FNDA:0,_RNvMNtCs2DXdqaz45d1_12mdviewer_lib7recentsNtB2_12RecentsStore4push
FNDA:34,_RNvNtCs2DXdqaz45d1_12mdviewer_lib7recents17canonical_or_self
FNF:12
FNH:7
DA:30,155
DA:31,155
DA:32,155
DA:66,47
DA:67,47
DA:68,47
DA:69,47
DA:73,1
DA:74,1
DA:75,1
DA:76,2
DA:78,0
DA:79,0
DA:80,0
DA:84,46
DA:86,47
DA:87,47
DA:88,47
DA:89,47
DA:90,47
DA:101,37
DA:102,37
DA:103,37
DA:104,100
DA:105,37
DA:106,37
DA:107,5
DA:108,32
DA:111,37
DA:112,37
DA:113,37
DA:114,0
DA:115,37
DA:116,37
DA:121,6
DA:122,6
DA:123,6
DA:128,0
DA:129,0
DA:130,0
DA:131,0
DA:132,0
DA:133,0
DA:134,0
DA:135,0
DA:136,0
DA:137,0
DA:138,0
DA:139,0
DA:140,0
DA:141,0
DA:142,0
BRF:0
BRH:0
LF:59
LH:36
end_of_record
SF:/home/ggtest/Work/Claude/MDViewer/.claude/worktrees/mdviewer-android/src-tauri/src/session.rs
FN:69,_RNCNCNvMNtCskXOmkMderRI_12mdviewer_lib7sessionNtB6_12SessionStore4opens_00B8_
FN:103,_RNCNCNvMNtCskXOmkMderRI_12mdviewer_lib7sessionNtB6_12SessionStore4saves0_00B8_
FN:66,_RNCNvMNtCskXOmkMderRI_12mdviewer_lib7sessionNtB4_12SessionStore4open0B6_
FN:69,_RNCNvMNtCskXOmkMderRI_12mdviewer_lib7sessionNtB4_12SessionStore4opens_0B6_
FN:98,_RNCNvMNtCskXOmkMderRI_12mdviewer_lib7sessionNtB4_12SessionStore4save0B6_
FN:99,_RNCNvMNtCskXOmkMderRI_12mdviewer_lib7sessionNtB4_12SessionStore4saves0_0B6_
FN:99,_RNCNvMNtCskXOmkMderRI_12mdviewer_lib7sessionNtB4_12SessionStore4saves_0B6_
FN:87,_RNvMNtCskXOmkMderRI_12mdviewer_lib7sessionNtB2_12SessionStore3get
FN:55,_RNvMNtCskXOmkMderRI_12mdviewer_lib7sessionNtB2_12SessionStore4open
FN:97,_RNvMNtCskXOmkMderRI_12mdviewer_lib7sessionNtB2_12SessionStore4save
FN:118,_RNvMNtCskXOmkMderRI_12mdviewer_lib7sessionNtB2_12SessionStore5clear
FN:69,_RNCNCNvMNtCs2DXdqaz45d1_12mdviewer_lib7sessionNtB6_12SessionStore4opens_00B8_
FN:103,_RNCNCNvMNtCs2DXdqaz45d1_12mdviewer_lib7sessionNtB6_12SessionStore4saves0_00B8_
FN:66,_RNCNvMNtCs2DXdqaz45d1_12mdviewer_lib7sessionNtB4_12SessionStore4open0B6_
FN:69,_RNCNvMNtCs2DXdqaz45d1_12mdviewer_lib7sessionNtB4_12SessionStore4opens_0B6_
FN:98,_RNCNvMNtCs2DXdqaz45d1_12mdviewer_lib7sessionNtB4_12SessionStore4save0B6_
FN:99,_RNCNvMNtCs2DXdqaz45d1_12mdviewer_lib7sessionNtB4_12SessionStore4saves0_0B6_
FN:99,_RNCNvMNtCs2DXdqaz45d1_12mdviewer_lib7sessionNtB4_12SessionStore4saves_0B6_
FN:87,_RNvMNtCs2DXdqaz45d1_12mdviewer_lib7sessionNtB2_12SessionStore3get
FN:55,_RNvMNtCs2DXdqaz45d1_12mdviewer_lib7sessionNtB2_12SessionStore4open
FN:97,_RNvMNtCs2DXdqaz45d1_12mdviewer_lib7sessionNtB2_12SessionStore4save
FN:118,_RNvMNtCs2DXdqaz45d1_12mdviewer_lib7sessionNtB2_12SessionStore5clear
FN:128,_RNvNtNtCs2DXdqaz45d1_12mdviewer_lib7session5tests5touch
FN:196,_RNvNtNtCs2DXdqaz45d1_12mdviewer_lib7session5testss_24save_canonicalizes_paths
FN:161,_RNvNtNtCs2DXdqaz45d1_12mdviewer_lib7session5testss_25open_prunes_missing_paths
FN:143,_RNvNtNtCs2DXdqaz45d1_12mdviewer_lib7session5testss_26save_then_open_round_trips
FN:223,_RNvNtNtCs2DXdqaz45d1_12mdviewer_lib7session5testss_29clear_writes_an_empty_session
FN:135,_RNvNtNtCs2DXdqaz45d1_12mdviewer_lib7session5testss_31open_returns_empty_when_no_file
FN:215,_RNvNtNtCs2DXdqaz45d1_12mdviewer_lib7session5testss_32corrupt_file_falls_back_to_empty
FN:181,_RNvNtNtCs2DXdqaz45d1_12mdviewer_lib7session5testss_39save_drops_active_when_not_in_open_tabs
FNDA:0,_RNCNCNvMNtCskXOmkMderRI_12mdviewer_lib7sessionNtB6_12SessionStore4opens_00B8_
FNDA:24,_RNCNCNvMNtCskXOmkMderRI_12mdviewer_lib7sessionNtB6_12SessionStore4saves0_00B8_
FNDA:0,_RNCNvMNtCskXOmkMderRI_12mdviewer_lib7sessionNtB4_12SessionStore4open0B6_
FNDA:0,_RNCNvMNtCskXOmkMderRI_12mdviewer_lib7sessionNtB4_12SessionStore4opens_0B6_
FNDA:25,_RNCNvMNtCskXOmkMderRI_12mdviewer_lib7sessionNtB4_12SessionStore4save0B6_
FNDA:22,_RNCNvMNtCskXOmkMderRI_12mdviewer_lib7sessionNtB4_12SessionStore4saves0_0B6_
FNDA:22,_RNCNvMNtCskXOmkMderRI_12mdviewer_lib7sessionNtB4_12SessionStore4saves_0B6_
FNDA:0,_RNvMNtCskXOmkMderRI_12mdviewer_lib7sessionNtB2_12SessionStore3get
FNDA:42,_RNvMNtCskXOmkMderRI_12mdviewer_lib7sessionNtB2_12SessionStore4open
FNDA:23,_RNvMNtCskXOmkMderRI_12mdviewer_lib7sessionNtB2_12SessionStore4save
FNDA:0,_RNvMNtCskXOmkMderRI_12mdviewer_lib7sessionNtB2_12SessionStore5clear
FNDA:2,_RNCNCNvMNtCs2DXdqaz45d1_12mdviewer_lib7sessionNtB6_12SessionStore4opens_00B8_
FNDA:8,_RNCNCNvMNtCs2DXdqaz45d1_12mdviewer_lib7sessionNtB6_12SessionStore4saves0_00B8_
FNDA:4,_RNCNvMNtCs2DXdqaz45d1_12mdviewer_lib7sessionNtB4_12SessionStore4open0B6_
FNDA:2,_RNCNvMNtCs2DXdqaz45d1_12mdviewer_lib7sessionNtB4_12SessionStore4opens_0B6_
FNDA:8,_RNCNvMNtCs2DXdqaz45d1_12mdviewer_lib7sessionNtB4_12SessionStore4save0B6_
FNDA:6,_RNCNvMNtCs2DXdqaz45d1_12mdviewer_lib7sessionNtB4_12SessionStore4saves0_0B6_
FNDA:6,_RNCNvMNtCs2DXdqaz45d1_12mdviewer_lib7sessionNtB4_12SessionStore4saves_0B6_
FNDA:10,_RNvMNtCs2DXdqaz45d1_12mdviewer_lib7sessionNtB2_12SessionStore3get
FNDA:10,_RNvMNtCs2DXdqaz45d1_12mdviewer_lib7sessionNtB2_12SessionStore4open
FNDA:7,_RNvMNtCs2DXdqaz45d1_12mdviewer_lib7sessionNtB2_12SessionStore4save
FNDA:1,_RNvMNtCs2DXdqaz45d1_12mdviewer_lib7sessionNtB2_12SessionStore5clear
FNDA:7,_RNvNtNtCs2DXdqaz45d1_12mdviewer_lib7session5tests5touch
FNDA:1,_RNvNtNtCs2DXdqaz45d1_12mdviewer_lib7session5testss_24save_canonicalizes_paths
FNDA:1,_RNvNtNtCs2DXdqaz45d1_12mdviewer_lib7session5testss_25open_prunes_missing_paths
FNDA:1,_RNvNtNtCs2DXdqaz45d1_12mdviewer_lib7session5testss_26save_then_open_round_trips
FNDA:1,_RNvNtNtCs2DXdqaz45d1_12mdviewer_lib7session5testss_29clear_writes_an_empty_session
FNDA:1,_RNvNtNtCs2DXdqaz45d1_12mdviewer_lib7session5testss_31open_returns_empty_when_no_file
FNDA:1,_RNvNtNtCs2DXdqaz45d1_12mdviewer_lib7session5testss_32corrupt_file_falls_back_to_empty
FNDA:1,_RNvNtNtCs2DXdqaz45d1_12mdviewer_lib7session5testss_39save_drops_active_when_not_in_open_tabs
FNF:19
FNH:19
DA:55,52
DA:56,52
DA:57,52
DA:58,52
DA:59,4
DA:60,4
DA:61,4
DA:65,4
DA:66,4
DA:67,4
DA:68,4
DA:69,4
DA:70,4
DA:72,0
DA:73,0
DA:74,0
DA:78,48
DA:80,52
DA:81,52
DA:82,52
DA:83,52
DA:84,52
DA:87,10
DA:88,10
DA:89,10
DA:97,30
DA:98,33
DA:99,30
DA:103,32
DA:104,28
DA:105,30
DA:106,30
DA:107,30
DA:108,30
DA:109,30
DA:110,30
DA:111,30
DA:112,30
DA:113,30
DA:114,30
DA:118,1
DA:119,1
DA:120,1
DA:128,7
DA:129,7
DA:130,7
DA:131,7
DA:132,7
DA:135,1
DA:136,1
DA:137,1
DA:138,1
DA:139,1
DA:140,1
DA:143,1
DA:144,1
DA:145,1
DA:146,1
DA:147,1
DA:148,1
DA:149,1
DA:150,1
DA:151,1
DA:152,1
DA:153,1
DA:155,1
DA:156,1
DA:157,1
DA:158,1
DA:161,1
DA:162,1
DA:163,1
DA:164,1
DA:165,1
DA:166,1
DA:167,1
DA:168,1
DA:169,1
DA:170,1
DA:173,1
DA:174,1
DA:175,1
DA:176,1
DA:177,1
DA:178,1
DA:181,1
DA:185,1
DA:186,1
DA:187,1
DA:188,1
DA:189,1
DA:190,1
DA:191,1
DA:192,1
DA:193,1
DA:196,1
DA:202,1
DA:203,1
DA:204,1
DA:205,1
DA:206,1
DA:208,1
DA:209,1
DA:210,1
DA:211,1
DA:212,1
DA:215,1
DA:216,1
DA:217,1
DA:218,1
DA:219,1
DA:220,1
DA:223,1
DA:224,1
DA:225,1
DA:226,1
DA:227,1
DA:228,1
DA:229,1
DA:230,1
DA:231,1
DA:233,1
DA:234,1
DA:235,1
BRF:0
BRH:0
LF:131
LH:128
end_of_record
SF:/home/ggtest/Work/Claude/MDViewer/.claude/worktrees/mdviewer-android/src-tauri/src/settings.rs
FN:417,_RNvMs2_NtCskXOmkMderRI_12mdviewer_lib8settingsNtB5_13SettingsStore3get
FN:387,_RNvMs2_NtCskXOmkMderRI_12mdviewer_lib8settingsNtB5_13SettingsStore4open
FN:450,_RNvMs2_NtCskXOmkMderRI_12mdviewer_lib8settingsNtB5_13SettingsStore9subscribe
FN:464,_RNvNtCskXOmkMderRI_12mdviewer_lib8settings10diff_event
FN:353,_RNvNtCskXOmkMderRI_12mdviewer_lib8settings16generate_user_id
FN:329,_RNvNtCskXOmkMderRI_12mdviewer_lib8settings17default_shortcuts
FN:222,_RNvNtCskXOmkMderRI_12mdviewer_lib8settings19default_active_poll
FN:225,_RNvNtCskXOmkMderRI_12mdviewer_lib8settings22default_unfocused_poll
FN:270,_RNvNtCskXOmkMderRI_12mdviewer_lib8settings24drive_kill_switch_active
FN:457,_RNvNtCskXOmkMderRI_12mdviewer_lib8settings5clamp
FN:87,_RNvXNtCskXOmkMderRI_12mdviewer_lib8settingsNtB2_15AutoMergeModeTsINtNtCsgEmfK2I1SDS_4core7convert4FromNtNtCsiFtzeUpmjej_13mdviewer_core10auto_merge13AutoMergeModeE4from
FN:230,_RNvXs0_NtCskXOmkMderRI_12mdviewer_lib8settingsNtB5_13DriveSettingsNtNtCsgEmfK2I1SDS_4core7default7Default7default
FN:288,_RNvXs1_NtCskXOmkMderRI_12mdviewer_lib8settingsNtB5_8SettingsNtNtCsgEmfK2I1SDS_4core7default7Default7default
FN:97,_RNvXs_NtCskXOmkMderRI_12mdviewer_lib8settingsNtNtCsiFtzeUpmjej_13mdviewer_core10auto_merge13AutoMergeModeINtNtCsgEmfK2I1SDS_4core7convert4FromNtB4_15AutoMergeModeTsE4from
FN:425,_RINvMs2_NtCskXOmkMderRI_12mdviewer_lib8settingsNtB6_13SettingsStore6updateNCNvMs_NtB8_9workspaceNtB1h_9Workspace28drive_connect_apply_no_spawn0EB8_
FN:443,_RNCINvMs2_NtCskXOmkMderRI_12mdviewer_lib8settingsNtB8_13SettingsStore6updateNCNvMs_NtBa_9workspaceNtB1j_9Workspace28drive_connect_apply_no_spawn0E0Ba_
FN:425,_RINvMs2_NtCskXOmkMderRI_12mdviewer_lib8settingsNtB6_13SettingsStore6updateNCNCNvCs9Zp63yrLmiT_18drive_connect_flows_48drive_connect_with_byo_client_id_uses_user_value00EB1g_
FN:443,_RNCINvMs2_NtCskXOmkMderRI_12mdviewer_lib8settingsNtB8_13SettingsStore6updateNCNCNvCs9Zp63yrLmiT_18drive_connect_flows_48drive_connect_with_byo_client_id_uses_user_value00E0B1i_
FN:425,_RINvMs2_NtCskXOmkMderRI_12mdviewer_lib8settingsNtB6_13SettingsStore6updateNCNvCs8SxmUlVP1Vq_14drive_settingss_35cloud_only_change_emits_cloud_event0EB1e_
FN:425,_RINvMs2_NtCskXOmkMderRI_12mdviewer_lib8settingsNtB6_13SettingsStore6updateNCNvCs8SxmUlVP1Vq_14drive_settingss_35cloud_only_change_emits_cloud_events_0EB1e_
FN:425,_RINvMs2_NtCskXOmkMderRI_12mdviewer_lib8settingsNtB6_13SettingsStore6updateNCNvCs8SxmUlVP1Vq_14drive_settingss_37cloud_only_change_round_trips_to_disk0EB1e_
FN:443,_RNCINvMs2_NtCskXOmkMderRI_12mdviewer_lib8settingsNtB8_13SettingsStore6updateNCNvCs8SxmUlVP1Vq_14drive_settingss_35cloud_only_change_emits_cloud_event0E0B1g_
FN:443,_RNCINvMs2_NtCskXOmkMderRI_12mdviewer_lib8settingsNtB8_13SettingsStore6updateNCNvCs8SxmUlVP1Vq_14drive_settingss_35cloud_only_change_emits_cloud_events_0E0B1g_
FN:443,_RNCINvMs2_NtCskXOmkMderRI_12mdviewer_lib8settingsNtB8_13SettingsStore6updateNCNvCs8SxmUlVP1Vq_14drive_settingss_37cloud_only_change_round_trips_to_disk0E0B1g_
FN:425,_RINvMs2_NtCskXOmkMderRI_12mdviewer_lib8settingsNtB6_13SettingsStore6updateNCNvCs7msczamolUa_16ipc_registrations_41settings_round_trip_through_handler_logic0EB1e_
FN:425,_RINvMs2_NtCskXOmkMderRI_12mdviewer_lib8settingsNtB6_13SettingsStore6updateNCNvCs7msczamolUa_16ipc_registrations_54set_settings_overwrite_pattern_replaces_whole_snapshot0EB1e_
FN:443,_RNCINvMs2_NtCskXOmkMderRI_12mdviewer_lib8settingsNtB8_13SettingsStore6updateNCNvCs7msczamolUa_16ipc_registrations_41settings_round_trip_through_handler_logic0E0B1g_
FN:443,_RNCINvMs2_NtCskXOmkMderRI_12mdviewer_lib8settingsNtB8_13SettingsStore6updateNCNvCs7msczamolUa_16ipc_registrations_54set_settings_overwrite_pattern_replaces_whole_snapshot0E0B1g_
FN:425,_RINvMs2_NtCskXOmkMderRI_12mdviewer_lib8settingsNtB6_13SettingsStore6updateNCNvCs6LdYeyK8eOD_8mdviewer12set_settingss_0EB1e_
FN:443,_RNCINvMs2_NtCskXOmkMderRI_12mdviewer_lib8settingsNtB8_13SettingsStore6updateNCNvCs6LdYeyK8eOD_8mdviewer12set_settingss_0E0B1g_
FN:425,_RINvMs2_NtCs2DXdqaz45d1_12mdviewer_lib8settingsNtB6_13SettingsStore6updatepEB8_
FN:443,_RNCINvMs2_NtCs2DXdqaz45d1_12mdviewer_lib8settingsNtB8_13SettingsStore6updatepE0Ba_
FN:450,_RNvMs2_NtCs2DXdqaz45d1_12mdviewer_lib8settingsNtB5_13SettingsStore9subscribe
FN:464,_RNvNtCs2DXdqaz45d1_12mdviewer_lib8settings10diff_event
FN:270,_RNvNtCs2DXdqaz45d1_12mdviewer_lib8settings24drive_kill_switch_active
FN:457,_RNvNtCs2DXdqaz45d1_12mdviewer_lib8settings5clamp
FN:97,_RNvXs_NtCs2DXdqaz45d1_12mdviewer_lib8settingsNtNtCsiFtzeUpmjej_13mdviewer_core10auto_merge13AutoMergeModeINtNtCsgEmfK2I1SDS_4core7convert4FromNtB4_15AutoMergeModeTsE4from
FN:417,_RNvMs2_NtCs2DXdqaz45d1_12mdviewer_lib8settingsNtB5_13SettingsStore3get
FN:387,_RNvMs2_NtCs2DXdqaz45d1_12mdviewer_lib8settingsNtB5_13SettingsStore4open
FN:353,_RNvNtCs2DXdqaz45d1_12mdviewer_lib8settings16generate_user_id
FN:329,_RNvNtCs2DXdqaz45d1_12mdviewer_lib8settings17default_shortcuts
FN:222,_RNvNtCs2DXdqaz45d1_12mdviewer_lib8settings19default_active_poll
FN:225,_RNvNtCs2DXdqaz45d1_12mdviewer_lib8settings22default_unfocused_poll
FN:87,_RNvXNtCs2DXdqaz45d1_12mdviewer_lib8settingsNtB2_15AutoMergeModeTsINtNtCsgEmfK2I1SDS_4core7convert4FromNtNtCsiFtzeUpmjej_13mdviewer_core10auto_merge13AutoMergeModeE4from
FN:230,_RNvXs0_NtCs2DXdqaz45d1_12mdviewer_lib8settingsNtB5_13DriveSettingsNtNtCsgEmfK2I1SDS_4core7default7Default7default
FN:288,_RNvXs1_NtCs2DXdqaz45d1_12mdviewer_lib8settingsNtB5_8SettingsNtNtCsgEmfK2I1SDS_4core7default7Default7default
FN:501,_RNvNtNtCs2DXdqaz45d1_12mdviewer_lib8settings5testss_43auto_merge_ts_wrapper_matches_core_variants
FN:524,_RNvNtNtCs2DXdqaz45d1_12mdviewer_lib8settings5testss_45default_shortcuts_includes_font_zoom_bindings
FN:604,_RNvNtNtCs2DXdqaz45d1_12mdviewer_lib8settings5testss_54user_customized_shortcuts_override_defaults_after_load
FN:550,_RNvNtNtCs2DXdqaz45d1_12mdviewer_lib8settings5testss_55missing_shortcuts_are_filled_from_defaults_at_load_time
FN:425,_RINvMs2_NtCskXOmkMderRI_12mdviewer_lib8settingsNtB6_13SettingsStore6updateNCNvCsavMWLLAojKx_8settingss_24round_trips_through_disk0EB1e_
FN:425,_RINvMs2_NtCskXOmkMderRI_12mdviewer_lib8settingsNtB6_13SettingsStore6updateNCNvCsavMWLLAojKx_8settingss_25change_events_are_emitted0EB1e_
FN:425,_RINvMs2_NtCskXOmkMderRI_12mdviewer_lib8settingsNtB6_13SettingsStore6updateNCNvCsavMWLLAojKx_8settingss_29invalid_confidence_is_clamped0EB1e_
FN:425,_RINvMs2_NtCskXOmkMderRI_12mdviewer_lib8settingsNtB6_13SettingsStore6updateNCNvCsavMWLLAojKx_8settingss_29invalid_confidence_is_clampeds_0EB1e_
FN:425,_RINvMs2_NtCskXOmkMderRI_12mdviewer_lib8settingsNtB6_13SettingsStore6updateNCNvCsavMWLLAojKx_8settingss_32change_events_cover_all_sections0EB1e_
FN:425,_RINvMs2_NtCskXOmkMderRI_12mdviewer_lib8settingsNtB6_13SettingsStore6updateNCNvCsavMWLLAojKx_8settingss_32change_events_cover_all_sectionss0_0EB1e_
FN:425,_RINvMs2_NtCskXOmkMderRI_12mdviewer_lib8settingsNtB6_13SettingsStore6updateNCNvCsavMWLLAojKx_8settingss_32change_events_cover_all_sectionss1_0EB1e_
FN:425,_RINvMs2_NtCskXOmkMderRI_12mdviewer_lib8settingsNtB6_13SettingsStore6updateNCNvCsavMWLLAojKx_8settingss_32change_events_cover_all_sectionss2_0EB1e_
FN:425,_RINvMs2_NtCskXOmkMderRI_12mdviewer_lib8settingsNtB6_13SettingsStore6updateNCNvCsavMWLLAojKx_8settingss_32change_events_cover_all_sectionss_0EB1e_
FN:443,_RNCINvMs2_NtCskXOmkMderRI_12mdviewer_lib8settingsNtB8_13SettingsStore6updateNCNvCsavMWLLAojKx_8settingss_24round_trips_through_disk0E0B1g_
FN:443,_RNCINvMs2_NtCskXOmkMderRI_12mdviewer_lib8settingsNtB8_13SettingsStore6updateNCNvCsavMWLLAojKx_8settingss_25change_events_are_emitted0E0B1g_
FN:443,_RNCINvMs2_NtCskXOmkMderRI_12mdviewer_lib8settingsNtB8_13SettingsStore6updateNCNvCsavMWLLAojKx_8settingss_29invalid_confidence_is_clamped0E0B1g_
FN:443,_RNCINvMs2_NtCskXOmkMderRI_12mdviewer_lib8settingsNtB8_13SettingsStore6updateNCNvCsavMWLLAojKx_8settingss_29invalid_confidence_is_clampeds_0E0B1g_
FN:443,_RNCINvMs2_NtCskXOmkMderRI_12mdviewer_lib8settingsNtB8_13SettingsStore6updateNCNvCsavMWLLAojKx_8settingss_32change_events_cover_all_sections0E0B1g_
FN:443,_RNCINvMs2_NtCskXOmkMderRI_12mdviewer_lib8settingsNtB8_13SettingsStore6updateNCNvCsavMWLLAojKx_8settingss_32change_events_cover_all_sectionss0_0E0B1g_
FN:443,_RNCINvMs2_NtCskXOmkMderRI_12mdviewer_lib8settingsNtB8_13SettingsStore6updateNCNvCsavMWLLAojKx_8settingss_32change_events_cover_all_sectionss1_0E0B1g_
FN:443,_RNCINvMs2_NtCskXOmkMderRI_12mdviewer_lib8settingsNtB8_13SettingsStore6updateNCNvCsavMWLLAojKx_8settingss_32change_events_cover_all_sectionss2_0E0B1g_
FN:443,_RNCINvMs2_NtCskXOmkMderRI_12mdviewer_lib8settingsNtB8_13SettingsStore6updateNCNvCsavMWLLAojKx_8settingss_32change_events_cover_all_sectionss_0E0B1g_
FN:425,_RINvMs2_NtCskXOmkMderRI_12mdviewer_lib8settingsNtB6_13SettingsStore6updateNCNvCshY2eqBAGZPN_9workspaces_43store_accessors_expose_settings_and_recents0EB1e_
FN:425,_RINvMs2_NtCskXOmkMderRI_12mdviewer_lib8settingsNtB6_13SettingsStore6updateNCNvCshY2eqBAGZPN_9workspaces_52resolve_anchor_for_tab_reads_threshold_from_settings0EB1e_
FN:443,_RNCINvMs2_NtCskXOmkMderRI_12mdviewer_lib8settingsNtB8_13SettingsStore6updateNCNvCshY2eqBAGZPN_9workspaces_43store_accessors_expose_settings_and_recents0E0B1g_
FN:443,_RNCINvMs2_NtCskXOmkMderRI_12mdviewer_lib8settingsNtB8_13SettingsStore6updateNCNvCshY2eqBAGZPN_9workspaces_52resolve_anchor_for_tab_reads_threshold_from_settings0E0B1g_
FNDA:43,_RNvMs2_NtCskXOmkMderRI_12mdviewer_lib8settingsNtB5_13SettingsStore3get
FNDA:53,_RNvMs2_NtCskXOmkMderRI_12mdviewer_lib8settingsNtB5_13SettingsStore4open
FNDA:3,_RNvMs2_NtCskXOmkMderRI_12mdviewer_lib8settingsNtB5_13SettingsStore9subscribe
FNDA:21,_RNvNtCskXOmkMderRI_12mdviewer_lib8settings10diff_event
FNDA:55,_RNvNtCskXOmkMderRI_12mdviewer_lib8settings16generate_user_id
FNDA:108,_RNvNtCskXOmkMderRI_12mdviewer_lib8settings17default_shortcuts
FNDA:1,_RNvNtCskXOmkMderRI_12mdviewer_lib8settings19default_active_poll
FNDA:1,_RNvNtCskXOmkMderRI_12mdviewer_lib8settings22default_unfocused_poll
FNDA:2,_RNvNtCskXOmkMderRI_12mdviewer_lib8settings24drive_kill_switch_active
FNDA:21,_RNvNtCskXOmkMderRI_12mdviewer_lib8settings5clamp
FNDA:0,_RNvXNtCskXOmkMderRI_12mdviewer_lib8settingsNtB2_15AutoMergeModeTsINtNtCsgEmfK2I1SDS_4core7convert4FromNtNtCsiFtzeUpmjej_13mdviewer_core10auto_merge13AutoMergeModeE4from
FNDA:56,_RNvXs0_NtCskXOmkMderRI_12mdviewer_lib8settingsNtB5_13DriveSettingsNtNtCsgEmfK2I1SDS_4core7default7Default7default
FNDA:55,_RNvXs1_NtCskXOmkMderRI_12mdviewer_lib8settingsNtB5_8SettingsNtNtCsgEmfK2I1SDS_4core7default7Default7default
FNDA:0,_RNvXs_NtCskXOmkMderRI_12mdviewer_lib8settingsNtNtCsiFtzeUpmjej_13mdviewer_core10auto_merge13AutoMergeModeINtNtCsgEmfK2I1SDS_4core7convert4FromNtB4_15AutoMergeModeTsE4from
FNDA:4,_RINvMs2_NtCskXOmkMderRI_12mdviewer_lib8settingsNtB6_13SettingsStore6updateNCNvMs_NtB8_9workspaceNtB1h_9Workspace28drive_connect_apply_no_spawn0EB8_
FNDA:0,_RNCINvMs2_NtCskXOmkMderRI_12mdviewer_lib8settingsNtB8_13SettingsStore6updateNCNvMs_NtBa_9workspaceNtB1j_9Workspace28drive_connect_apply_no_spawn0E0Ba_
FNDA:1,_RINvMs2_NtCskXOmkMderRI_12mdviewer_lib8settingsNtB6_13SettingsStore6updateNCNCNvCs9Zp63yrLmiT_18drive_connect_flows_48drive_connect_with_byo_client_id_uses_user_value00EB1g_
FNDA:0,_RNCINvMs2_NtCskXOmkMderRI_12mdviewer_lib8settingsNtB8_13SettingsStore6updateNCNCNvCs9Zp63yrLmiT_18drive_connect_flows_48drive_connect_with_byo_client_id_uses_user_value00E0B1i_
FNDA:1,_RINvMs2_NtCskXOmkMderRI_12mdviewer_lib8settingsNtB6_13SettingsStore6updateNCNvCs8SxmUlVP1Vq_14drive_settingss_35cloud_only_change_emits_cloud_event0EB1e_
FNDA:1,_RINvMs2_NtCskXOmkMderRI_12mdviewer_lib8settingsNtB6_13SettingsStore6updateNCNvCs8SxmUlVP1Vq_14drive_settingss_35cloud_only_change_emits_cloud_events_0EB1e_
FNDA:1,_RINvMs2_NtCskXOmkMderRI_12mdviewer_lib8settingsNtB6_13SettingsStore6updateNCNvCs8SxmUlVP1Vq_14drive_settingss_37cloud_only_change_round_trips_to_disk0EB1e_
FNDA:1,_RNCINvMs2_NtCskXOmkMderRI_12mdviewer_lib8settingsNtB8_13SettingsStore6updateNCNvCs8SxmUlVP1Vq_14drive_settingss_35cloud_only_change_emits_cloud_event0E0B1g_
FNDA:1,_RNCINvMs2_NtCskXOmkMderRI_12mdviewer_lib8settingsNtB8_13SettingsStore6updateNCNvCs8SxmUlVP1Vq_14drive_settingss_35cloud_only_change_emits_cloud_events_0E0B1g_
FNDA:0,_RNCINvMs2_NtCskXOmkMderRI_12mdviewer_lib8settingsNtB8_13SettingsStore6updateNCNvCs8SxmUlVP1Vq_14drive_settingss_37cloud_only_change_round_trips_to_disk0E0B1g_
FNDA:1,_RINvMs2_NtCskXOmkMderRI_12mdviewer_lib8settingsNtB6_13SettingsStore6updateNCNvCs7msczamolUa_16ipc_registrations_41settings_round_trip_through_handler_logic0EB1e_
FNDA:1,_RINvMs2_NtCskXOmkMderRI_12mdviewer_lib8settingsNtB6_13SettingsStore6updateNCNvCs7msczamolUa_16ipc_registrations_54set_settings_overwrite_pattern_replaces_whole_snapshot0EB1e_
FNDA:0,_RNCINvMs2_NtCskXOmkMderRI_12mdviewer_lib8settingsNtB8_13SettingsStore6updateNCNvCs7msczamolUa_16ipc_registrations_41settings_round_trip_through_handler_logic0E0B1g_
FNDA:0,_RNCINvMs2_NtCskXOmkMderRI_12mdviewer_lib8settingsNtB8_13SettingsStore6updateNCNvCs7msczamolUa_16ipc_registrations_54set_settings_overwrite_pattern_replaces_whole_snapshot0E0B1g_
FNDA:0,_RINvMs2_NtCskXOmkMderRI_12mdviewer_lib8settingsNtB6_13SettingsStore6updateNCNvCs6LdYeyK8eOD_8mdviewer12set_settingss_0EB1e_
FNDA:0,_RNCINvMs2_NtCskXOmkMderRI_12mdviewer_lib8settingsNtB8_13SettingsStore6updateNCNvCs6LdYeyK8eOD_8mdviewer12set_settingss_0E0B1g_
FNDA:0,_RINvMs2_NtCs2DXdqaz45d1_12mdviewer_lib8settingsNtB6_13SettingsStore6updatepEB8_
FNDA:0,_RNCINvMs2_NtCs2DXdqaz45d1_12mdviewer_lib8settingsNtB8_13SettingsStore6updatepE0Ba_
FNDA:0,_RNvMs2_NtCs2DXdqaz45d1_12mdviewer_lib8settingsNtB5_13SettingsStore9subscribe
FNDA:0,_RNvNtCs2DXdqaz45d1_12mdviewer_lib8settings10diff_event
FNDA:0,_RNvNtCs2DXdqaz45d1_12mdviewer_lib8settings24drive_kill_switch_active
FNDA:0,_RNvNtCs2DXdqaz45d1_12mdviewer_lib8settings5clamp
FNDA:3,_RNvXs_NtCs2DXdqaz45d1_12mdviewer_lib8settingsNtNtCsiFtzeUpmjej_13mdviewer_core10auto_merge13AutoMergeModeINtNtCsgEmfK2I1SDS_4core7convert4FromNtB4_15AutoMergeModeTsE4from
FNDA:2,_RNvMs2_NtCs2DXdqaz45d1_12mdviewer_lib8settingsNtB5_13SettingsStore3get
FNDA:2,_RNvMs2_NtCs2DXdqaz45d1_12mdviewer_lib8settingsNtB5_13SettingsStore4open
FNDA:0,_RNvNtCs2DXdqaz45d1_12mdviewer_lib8settings16generate_user_id
FNDA:4,_RNvNtCs2DXdqaz45d1_12mdviewer_lib8settings17default_shortcuts
FNDA:0,_RNvNtCs2DXdqaz45d1_12mdviewer_lib8settings19default_active_poll
FNDA:0,_RNvNtCs2DXdqaz45d1_12mdviewer_lib8settings22default_unfocused_poll
FNDA:3,_RNvXNtCs2DXdqaz45d1_12mdviewer_lib8settingsNtB2_15AutoMergeModeTsINtNtCsgEmfK2I1SDS_4core7convert4FromNtNtCsiFtzeUpmjej_13mdviewer_core10auto_merge13AutoMergeModeE4from
FNDA:2,_RNvXs0_NtCs2DXdqaz45d1_12mdviewer_lib8settingsNtB5_13DriveSettingsNtNtCsgEmfK2I1SDS_4core7default7Default7default
FNDA:0,_RNvXs1_NtCs2DXdqaz45d1_12mdviewer_lib8settingsNtB5_8SettingsNtNtCsgEmfK2I1SDS_4core7default7Default7default
FNDA:1,_RNvNtNtCs2DXdqaz45d1_12mdviewer_lib8settings5testss_43auto_merge_ts_wrapper_matches_core_variants
FNDA:1,_RNvNtNtCs2DXdqaz45d1_12mdviewer_lib8settings5testss_45default_shortcuts_includes_font_zoom_bindings
FNDA:1,_RNvNtNtCs2DXdqaz45d1_12mdviewer_lib8settings5testss_54user_customized_shortcuts_override_defaults_after_load
FNDA:1,_RNvNtNtCs2DXdqaz45d1_12mdviewer_lib8settings5testss_55missing_shortcuts_are_filled_from_defaults_at_load_time
FNDA:1,_RINvMs2_NtCskXOmkMderRI_12mdviewer_lib8settingsNtB6_13SettingsStore6updateNCNvCsavMWLLAojKx_8settingss_24round_trips_through_disk0EB1e_
FNDA:1,_RINvMs2_NtCskXOmkMderRI_12mdviewer_lib8settingsNtB6_13SettingsStore6updateNCNvCsavMWLLAojKx_8settingss_25change_events_are_emitted0EB1e_
FNDA:1,_RINvMs2_NtCskXOmkMderRI_12mdviewer_lib8settingsNtB6_13SettingsStore6updateNCNvCsavMWLLAojKx_8settingss_29invalid_confidence_is_clamped0EB1e_
FNDA:1,_RINvMs2_NtCskXOmkMderRI_12mdviewer_lib8settingsNtB6_13SettingsStore6updateNCNvCsavMWLLAojKx_8settingss_29invalid_confidence_is_clampeds_0EB1e_
FNDA:1,_RINvMs2_NtCskXOmkMderRI_12mdviewer_lib8settingsNtB6_13SettingsStore6updateNCNvCsavMWLLAojKx_8settingss_32change_events_cover_all_sections0EB1e_
FNDA:1,_RINvMs2_NtCskXOmkMderRI_12mdviewer_lib8settingsNtB6_13SettingsStore6updateNCNvCsavMWLLAojKx_8settingss_32change_events_cover_all_sectionss0_0EB1e_
FNDA:1,_RINvMs2_NtCskXOmkMderRI_12mdviewer_lib8settingsNtB6_13SettingsStore6updateNCNvCsavMWLLAojKx_8settingss_32change_events_cover_all_sectionss1_0EB1e_
FNDA:1,_RINvMs2_NtCskXOmkMderRI_12mdviewer_lib8settingsNtB6_13SettingsStore6updateNCNvCsavMWLLAojKx_8settingss_32change_events_cover_all_sectionss2_0EB1e_
FNDA:1,_RINvMs2_NtCskXOmkMderRI_12mdviewer_lib8settingsNtB6_13SettingsStore6updateNCNvCsavMWLLAojKx_8settingss_32change_events_cover_all_sectionss_0EB1e_
FNDA:0,_RNCINvMs2_NtCskXOmkMderRI_12mdviewer_lib8settingsNtB8_13SettingsStore6updateNCNvCsavMWLLAojKx_8settingss_24round_trips_through_disk0E0B1g_
FNDA:1,_RNCINvMs2_NtCskXOmkMderRI_12mdviewer_lib8settingsNtB8_13SettingsStore6updateNCNvCsavMWLLAojKx_8settingss_25change_events_are_emitted0E0B1g_
FNDA:0,_RNCINvMs2_NtCskXOmkMderRI_12mdviewer_lib8settingsNtB8_13SettingsStore6updateNCNvCsavMWLLAojKx_8settingss_29invalid_confidence_is_clamped0E0B1g_
FNDA:0,_RNCINvMs2_NtCskXOmkMderRI_12mdviewer_lib8settingsNtB8_13SettingsStore6updateNCNvCsavMWLLAojKx_8settingss_29invalid_confidence_is_clampeds_0E0B1g_
FNDA:1,_RNCINvMs2_NtCskXOmkMderRI_12mdviewer_lib8settingsNtB8_13SettingsStore6updateNCNvCsavMWLLAojKx_8settingss_32change_events_cover_all_sections0E0B1g_
FNDA:1,_RNCINvMs2_NtCskXOmkMderRI_12mdviewer_lib8settingsNtB8_13SettingsStore6updateNCNvCsavMWLLAojKx_8settingss_32change_events_cover_all_sectionss0_0E0B1g_
FNDA:1,_RNCINvMs2_NtCskXOmkMderRI_12mdviewer_lib8settingsNtB8_13SettingsStore6updateNCNvCsavMWLLAojKx_8settingss_32change_events_cover_all_sectionss1_0E0B1g_
FNDA:0,_RNCINvMs2_NtCskXOmkMderRI_12mdviewer_lib8settingsNtB8_13SettingsStore6updateNCNvCsavMWLLAojKx_8settingss_32change_events_cover_all_sectionss2_0E0B1g_
FNDA:1,_RNCINvMs2_NtCskXOmkMderRI_12mdviewer_lib8settingsNtB8_13SettingsStore6updateNCNvCsavMWLLAojKx_8settingss_32change_events_cover_all_sectionss_0E0B1g_
FNDA:1,_RINvMs2_NtCskXOmkMderRI_12mdviewer_lib8settingsNtB6_13SettingsStore6updateNCNvCshY2eqBAGZPN_9workspaces_43store_accessors_expose_settings_and_recents0EB1e_
FNDA:1,_RINvMs2_NtCskXOmkMderRI_12mdviewer_lib8settingsNtB6_13SettingsStore6updateNCNvCshY2eqBAGZPN_9workspaces_52resolve_anchor_for_tab_reads_threshold_from_settings0EB1e_
FNDA:0,_RNCINvMs2_NtCskXOmkMderRI_12mdviewer_lib8settingsNtB8_13SettingsStore6updateNCNvCshY2eqBAGZPN_9workspaces_43store_accessors_expose_settings_and_recents0E0B1g_
FNDA:0,_RNCINvMs2_NtCskXOmkMderRI_12mdviewer_lib8settingsNtB8_13SettingsStore6updateNCNvCshY2eqBAGZPN_9workspaces_52resolve_anchor_for_tab_reads_threshold_from_settings0E0B1g_
FNF:20
FNH:20
DA:87,3
DA:88,3
DA:89,1
DA:90,1
DA:91,1
DA:93,3
DA:97,3
DA:98,3
DA:99,1
DA:100,1
DA:101,1
DA:103,3
DA:222,1
DA:223,1
DA:224,1
DA:225,1
DA:226,1
DA:227,1
DA:230,58
DA:231,58
DA:232,58
DA:233,58
DA:234,58
DA:235,58
DA:236,58
DA:237,58
DA:238,58
DA:239,58
DA:240,58
DA:241,58
DA:242,58
DA:243,58
DA:244,58
DA:245,58
DA:246,58
DA:247,58
DA:248,58
DA:249,58
DA:270,2
DA:271,2
DA:272,2
DA:288,55
DA:289,55
DA:290,55
DA:291,55
DA:292,55
DA:293,55
DA:294,55
DA:295,55
DA:296,55
DA:297,55
DA:298,55
DA:299,55
DA:300,55
DA:301,55
DA:302,55
DA:303,55
DA:304,55
DA:305,55
DA:306,55
DA:307,55
DA:308,55
DA:309,55
DA:310,55
DA:311,55
DA:312,55
DA:313,55
DA:314,55
DA:315,55
DA:316,55
DA:317,55
DA:318,55
DA:319,55
DA:320,55
DA:321,55
DA:322,55
DA:323,55
DA:324,55
DA:325,55
DA:326,55
DA:329,112
DA:334,112
DA:335,112
DA:336,112
DA:337,112
DA:338,112
DA:339,112
DA:340,112
DA:341,112
DA:342,112
DA:343,112
DA:347,112
DA:348,112
DA:349,112
DA:350,112
DA:351,112
DA:353,55
DA:356,55
DA:357,55
DA:358,55
DA:359,55
DA:360,55
DA:361,55
DA:387,55
DA:388,55
DA:389,55
DA:390,55
DA:391,6
DA:392,6
DA:394,49
DA:395,49
DA:396,49
DA:406,660
DA:407,660
DA:408,660
DA:409,55
DA:410,55
DA:411,55
DA:412,55
DA:413,55
DA:414,55
DA:417,45
DA:418,45
DA:419,45
DA:425,21
DA:428,21
DA:429,21
DA:430,21
DA:431,21
DA:432,21
DA:433,21
DA:434,21
DA:435,21
DA:439,21
DA:440,20
DA:441,20
DA:443,20
DA:444,1
DA:445,21
DA:446,21
DA:450,3
DA:451,3
DA:452,3
DA:453,3
DA:454,3
DA:457,21
DA:458,21
DA:459,21
DA:460,21
DA:461,21
DA:462,21
DA:464,21
DA:465,21
DA:466,4
DA:467,17
DA:468,17
DA:469,2
DA:470,15
DA:471,15
DA:472,1
DA:473,14
DA:474,14
DA:475,3
DA:476,11
DA:477,11
DA:478,1
DA:479,10
DA:480,10
DA:481,1
DA:482,9
DA:483,9
DA:484,8
DA:485,1
DA:486,1
DA:487,21
DA:501,1
DA:502,3
DA:503,1
DA:504,1
DA:505,1
DA:506,1
DA:507,3
DA:508,3
DA:509,3
DA:511,3
DA:512,3
DA:513,3
DA:516,1
DA:524,1
DA:525,1
DA:526,1
DA:527,1
DA:530,1
DA:531,1
DA:534,1
DA:535,1
DA:538,1
DA:550,1
DA:551,1
DA:554,1
DA:587,1
DA:588,1
DA:589,1
DA:591,12
DA:592,12
DA:593,12
DA:594,12
DA:598,1
DA:604,1
DA:605,1
DA:606,1
DA:640,1
DA:641,1
DA:642,1
DA:643,1
DA:644,1
DA:649,1
DA:650,1
DA:653,1
DA:654,1
DA:657,1
BRF:0
BRH:0
LF:222
LH:221
end_of_record
SF:/home/ggtest/Work/Claude/MDViewer/.claude/worktrees/mdviewer-android/src-tauri/src/sidecar.rs
FN:32,_RNCNvNtCskXOmkMderRI_12mdviewer_lib7sidecar12sidecar_path0B5_
FN:39,_RNvNtCskXOmkMderRI_12mdviewer_lib7sidecar12load_sidecar
FN:56,_RNvNtCskXOmkMderRI_12mdviewer_lib7sidecar12save_sidecar
FN:30,_RNvNtCskXOmkMderRI_12mdviewer_lib7sidecar12sidecar_path
FN:73,_RNvNtCskXOmkMderRI_12mdviewer_lib7sidecar17merge_with_policy
FN:32,_RNCNvNtCs2DXdqaz45d1_12mdviewer_lib7sidecar12sidecar_path0B5_
FN:39,_RNvNtCs2DXdqaz45d1_12mdviewer_lib7sidecar12load_sidecar
FN:56,_RNvNtCs2DXdqaz45d1_12mdviewer_lib7sidecar12save_sidecar
FN:30,_RNvNtCs2DXdqaz45d1_12mdviewer_lib7sidecar12sidecar_path
FN:73,_RNvNtCs2DXdqaz45d1_12mdviewer_lib7sidecar17merge_with_policy
FNDA:22,_RNCNvNtCskXOmkMderRI_12mdviewer_lib7sidecar12sidecar_path0B5_
FNDA:24,_RNvNtCskXOmkMderRI_12mdviewer_lib7sidecar12load_sidecar
FNDA:7,_RNvNtCskXOmkMderRI_12mdviewer_lib7sidecar12save_sidecar
FNDA:22,_RNvNtCskXOmkMderRI_12mdviewer_lib7sidecar12sidecar_path
FNDA:4,_RNvNtCskXOmkMderRI_12mdviewer_lib7sidecar17merge_with_policy
FNDA:0,_RNCNvNtCs2DXdqaz45d1_12mdviewer_lib7sidecar12sidecar_path0B5_
FNDA:0,_RNvNtCs2DXdqaz45d1_12mdviewer_lib7sidecar12load_sidecar
FNDA:0,_RNvNtCs2DXdqaz45d1_12mdviewer_lib7sidecar12save_sidecar
FNDA:0,_RNvNtCs2DXdqaz45d1_12mdviewer_lib7sidecar12sidecar_path
FNDA:0,_RNvNtCs2DXdqaz45d1_12mdviewer_lib7sidecar17merge_with_policy
FNF:5
FNH:5
DA:30,22
DA:31,22
DA:32,22
DA:33,22
DA:34,22
DA:39,24
DA:40,24
DA:41,16
DA:42,8
DA:43,8
DA:44,8
DA:45,24
DA:56,7
DA:57,7
DA:60,7
DA:61,7
DA:62,0
DA:63,0
DA:64,7
DA:65,7
DA:66,7
DA:67,7
DA:73,4
DA:74,4
DA:75,4
DA:76,4
DA:77,4
DA:78,4
DA:79,4
DA:80,4
BRF:0
BRH:0
LF:31
LH:29
end_of_record
SF:/home/ggtest/Work/Claude/MDViewer/.claude/worktrees/mdviewer-android/src-tauri/src/watcher.rs
FN:259,_RNvMNtCskXOmkMderRI_12mdviewer_lib7watcherNtB2_7Watcher12mark_unsaved
FN:249,_RNvMNtCskXOmkMderRI_12mdviewer_lib7watcherNtB2_7Watcher13watch_sidecar
FN:315,_RNvMNtCskXOmkMderRI_12mdviewer_lib7watcherNtB2_7Watcher16compare_for_save
FN:270,_RNvMNtCskXOmkMderRI_12mdviewer_lib7watcherNtB2_7Watcher17record_self_write
FN:234,_RNvMNtCskXOmkMderRI_12mdviewer_lib7watcherNtB2_7Watcher28set_external_change_behavior
FN:149,_RNvMNtCskXOmkMderRI_12mdviewer_lib7watcherNtB2_7Watcher3new
FN:240,_RNvMNtCskXOmkMderRI_12mdviewer_lib7watcherNtB2_7Watcher8watch_md
FN:290,_RNvMNtCskXOmkMderRI_12mdviewer_lib7watcherNtB2_7Watcher9note_open
FN:371,_RNvNtCskXOmkMderRI_12mdviewer_lib7watcher10quick_hash
FN:342,_RNvNtCskXOmkMderRI_12mdviewer_lib7watcher8snapshot
FN:361,_RNvNtCskXOmkMderRI_12mdviewer_lib7watcher9canonical
FN:184,_RNCNCNvMNtCskXOmkMderRI_12mdviewer_lib7watcherNtB6_7Watcher3new00B8_
FN:279,_RNCNvMNtCskXOmkMderRI_12mdviewer_lib7watcherNtB4_7Watcher17record_self_write0B6_
FN:153,_RNCNvMNtCskXOmkMderRI_12mdviewer_lib7watcherNtB4_7Watcher3new0B6_
FN:362,_RNCNvNtCskXOmkMderRI_12mdviewer_lib7watcher9canonical0B5_
FN:184,_RNCNCNvMNtCs2DXdqaz45d1_12mdviewer_lib7watcherNtB6_7Watcher3new00B8_
FN:279,_RNCNvMNtCs2DXdqaz45d1_12mdviewer_lib7watcherNtB4_7Watcher17record_self_write0B6_
FN:153,_RNCNvMNtCs2DXdqaz45d1_12mdviewer_lib7watcherNtB4_7Watcher3new0B6_
FN:362,_RNCNvNtCs2DXdqaz45d1_12mdviewer_lib7watcher9canonical0B5_
FN:259,_RNvMNtCs2DXdqaz45d1_12mdviewer_lib7watcherNtB2_7Watcher12mark_unsaved
FN:249,_RNvMNtCs2DXdqaz45d1_12mdviewer_lib7watcherNtB2_7Watcher13watch_sidecar
FN:315,_RNvMNtCs2DXdqaz45d1_12mdviewer_lib7watcherNtB2_7Watcher16compare_for_save
FN:270,_RNvMNtCs2DXdqaz45d1_12mdviewer_lib7watcherNtB2_7Watcher17record_self_write
FN:234,_RNvMNtCs2DXdqaz45d1_12mdviewer_lib7watcherNtB2_7Watcher28set_external_change_behavior
FN:149,_RNvMNtCs2DXdqaz45d1_12mdviewer_lib7watcherNtB2_7Watcher3new
FN:240,_RNvMNtCs2DXdqaz45d1_12mdviewer_lib7watcherNtB2_7Watcher8watch_md
FN:290,_RNvMNtCs2DXdqaz45d1_12mdviewer_lib7watcherNtB2_7Watcher9note_open
FN:371,_RNvNtCs2DXdqaz45d1_12mdviewer_lib7watcher10quick_hash
FN:342,_RNvNtCs2DXdqaz45d1_12mdviewer_lib7watcher8snapshot
FN:361,_RNvNtCs2DXdqaz45d1_12mdviewer_lib7watcher9canonical
FNDA:0,_RNvMNtCskXOmkMderRI_12mdviewer_lib7watcherNtB2_7Watcher12mark_unsaved
FNDA:0,_RNvMNtCskXOmkMderRI_12mdviewer_lib7watcherNtB2_7Watcher13watch_sidecar
FNDA:4,_RNvMNtCskXOmkMderRI_12mdviewer_lib7watcherNtB2_7Watcher16compare_for_save
FNDA:0,_RNvMNtCskXOmkMderRI_12mdviewer_lib7watcherNtB2_7Watcher17record_self_write
FNDA:0,_RNvMNtCskXOmkMderRI_12mdviewer_lib7watcherNtB2_7Watcher28set_external_change_behavior
FNDA:18,_RNvMNtCskXOmkMderRI_12mdviewer_lib7watcherNtB2_7Watcher3new
FNDA:0,_RNvMNtCskXOmkMderRI_12mdviewer_lib7watcherNtB2_7Watcher8watch_md
FNDA:4,_RNvMNtCskXOmkMderRI_12mdviewer_lib7watcherNtB2_7Watcher9note_open
FNDA:5,_RNvNtCskXOmkMderRI_12mdviewer_lib7watcher10quick_hash
FNDA:8,_RNvNtCskXOmkMderRI_12mdviewer_lib7watcher8snapshot
FNDA:8,_RNvNtCskXOmkMderRI_12mdviewer_lib7watcher9canonical
FNDA:0,_RNCNCNvMNtCskXOmkMderRI_12mdviewer_lib7watcherNtB6_7Watcher3new00B8_
FNDA:0,_RNCNvMNtCskXOmkMderRI_12mdviewer_lib7watcherNtB4_7Watcher17record_self_write0B6_
FNDA:0,_RNCNvMNtCskXOmkMderRI_12mdviewer_lib7watcherNtB4_7Watcher3new0B6_
FNDA:0,_RNCNvNtCskXOmkMderRI_12mdviewer_lib7watcher9canonical0B5_
FNDA:0,_RNCNCNvMNtCs2DXdqaz45d1_12mdviewer_lib7watcherNtB6_7Watcher3new00B8_
FNDA:0,_RNCNvMNtCs2DXdqaz45d1_12mdviewer_lib7watcherNtB4_7Watcher17record_self_write0B6_
FNDA:0,_RNCNvMNtCs2DXdqaz45d1_12mdviewer_lib7watcherNtB4_7Watcher3new0B6_
FNDA:0,_RNCNvNtCs2DXdqaz45d1_12mdviewer_lib7watcher9canonical0B5_
FNDA:0,_RNvMNtCs2DXdqaz45d1_12mdviewer_lib7watcherNtB2_7Watcher12mark_unsaved
FNDA:0,_RNvMNtCs2DXdqaz45d1_12mdviewer_lib7watcherNtB2_7Watcher13watch_sidecar
FNDA:0,_RNvMNtCs2DXdqaz45d1_12mdviewer_lib7watcherNtB2_7Watcher16compare_for_save
FNDA:0,_RNvMNtCs2DXdqaz45d1_12mdviewer_lib7watcherNtB2_7Watcher17record_self_write
FNDA:0,_RNvMNtCs2DXdqaz45d1_12mdviewer_lib7watcherNtB2_7Watcher28set_external_change_behavior
FNDA:0,_RNvMNtCs2DXdqaz45d1_12mdviewer_lib7watcherNtB2_7Watcher3new
FNDA:0,_RNvMNtCs2DXdqaz45d1_12mdviewer_lib7watcherNtB2_7Watcher8watch_md
FNDA:0,_RNvMNtCs2DXdqaz45d1_12mdviewer_lib7watcherNtB2_7Watcher9note_open
FNDA:0,_RNvNtCs2DXdqaz45d1_12mdviewer_lib7watcher10quick_hash
FNDA:0,_RNvNtCs2DXdqaz45d1_12mdviewer_lib7watcher8snapshot
FNDA:0,_RNvNtCs2DXdqaz45d1_12mdviewer_lib7watcher9canonical
FNF:15
FNH:6
DA:149,18
DA:150,18
DA:151,18
DA:152,18
DA:153,0
DA:154,0
DA:155,0
DA:157,0
DA:158,0
DA:161,0
DA:162,0
DA:163,0
DA:164,0
DA:169,0
DA:170,0
DA:171,0
DA:172,0
DA:173,0
DA:175,0
DA:182,0
DA:183,0
DA:184,0
DA:185,0
DA:186,0
DA:187,0
DA:188,0
DA:189,0
DA:190,0
DA:191,0
DA:193,0
DA:203,0
DA:204,0
DA:205,0
DA:209,0
DA:211,0
DA:212,0
DA:213,0
DA:214,0
DA:217,0
DA:218,0
DA:219,0
DA:220,0
DA:221,0
DA:223,0
DA:224,18
DA:225,0
DA:226,18
DA:227,18
DA:228,18
DA:229,18
DA:230,18
DA:234,0
DA:235,0
DA:236,0
DA:240,0
DA:241,0
DA:242,0
DA:243,0
DA:244,0
DA:245,0
DA:249,0
DA:250,0
DA:251,0
DA:252,0
DA:253,0
DA:254,0
DA:259,0
DA:260,0
DA:261,0
DA:262,0
DA:270,0
DA:271,0
DA:272,0
DA:273,0
DA:274,0
DA:275,0
DA:276,0
DA:279,0
DA:280,0
DA:290,4
DA:291,4
DA:292,4
DA:293,4
DA:294,4
DA:295,4
DA:296,4
DA:297,4
DA:298,4
DA:299,4
DA:315,4
DA:316,4
DA:317,4
DA:318,4
DA:319,4
DA:320,0
DA:322,4
DA:323,2
DA:324,2
DA:325,2
DA:326,2
DA:327,2
DA:328,2
DA:329,2
DA:330,2
DA:331,4
DA:342,8
DA:343,8
DA:344,8
DA:345,8
DA:346,8
DA:347,8
DA:348,8
DA:349,8
DA:350,8
DA:361,8
DA:362,8
DA:363,8
DA:371,5
DA:373,5
DA:374,5
DA:375,5
DA:376,5
BRF:0
BRH:0
LF:125
LH:52
end_of_record
SF:/home/ggtest/Work/Claude/MDViewer/.claude/worktrees/mdviewer-android/src-tauri/src/workspace.rs
FN:97,_RNvMNtCskXOmkMderRI_12mdviewer_lib9workspaceNtB2_3Tab15compute_backend
FN:81,_RNvMNtCskXOmkMderRI_12mdviewer_lib9workspaceNtB2_3Tab7summary
FN:1317,_RNvMs0_NtCskXOmkMderRI_12mdviewer_lib9workspaceNtB5_14ConflictSource7to_wire
FN:1348,_RNvMs2_NtCskXOmkMderRI_12mdviewer_lib9workspaceNtB5_9Workspace12new_for_test
FN:1374,_RNvMs2_NtCskXOmkMderRI_12mdviewer_lib9workspaceNtB5_9Workspace22drive_connect_for_test
FN:1361,_RNvMs2_NtCskXOmkMderRI_12mdviewer_lib9workspaceNtB5_9Workspace22set_drive_api_for_test
FN:1414,_RNvMs2_NtCskXOmkMderRI_12mdviewer_lib9workspaceNtB5_9Workspace23test_open_drive_api_tab
FN:1404,_RNvMs2_NtCskXOmkMderRI_12mdviewer_lib9workspaceNtB5_9Workspace26polling_cancel_rx_for_test
FN:1448,_RNvMs2_NtCskXOmkMderRI_12mdviewer_lib9workspaceNtB5_9Workspace27test_open_drive_desktop_tab
FN:1389,_RNvMs2_NtCskXOmkMderRI_12mdviewer_lib9workspaceNtB5_9Workspace39drive_connect_capture_auth_url_for_test
FN:272,_RNvMs_NtCskXOmkMderRI_12mdviewer_lib9workspaceNtB4_9Workspace10config_dir
FN:1016,_RNvMs_NtCskXOmkMderRI_12mdviewer_lib9workspaceNtB4_9Workspace11refresh_tab
FN:1067,_RNvMs_NtCskXOmkMderRI_12mdviewer_lib9workspaceNtB4_9Workspace12activate_tab
FN:1130,_RNvMs_NtCskXOmkMderRI_12mdviewer_lib9workspaceNtB4_9Workspace12comments_for
FN:317,_RNvMs_NtCskXOmkMderRI_12mdviewer_lib9workspaceNtB4_9Workspace12drive_status
FN:1084,_RNvMs_NtCskXOmkMderRI_12mdviewer_lib9workspaceNtB4_9Workspace12find_by_path
FN:1080,_RNvMs_NtCskXOmkMderRI_12mdviewer_lib9workspaceNtB4_9Workspace13active_tab_id
FN:1110,_RNvMs_NtCskXOmkMderRI_12mdviewer_lib9workspaceNtB4_9Workspace13doc_prefs_mut
FN:280,_RNvMs_NtCskXOmkMderRI_12mdviewer_lib9workspaceNtB4_9Workspace13drive_api_arc
FN:628,_RNvMs_NtCskXOmkMderRI_12mdviewer_lib9workspaceNtB4_9Workspace13drive_connect
FN:882,_RNvMs_NtCskXOmkMderRI_12mdviewer_lib9workspaceNtB4_9Workspace13open_document
FN:1097,_RNvMs_NtCskXOmkMderRI_12mdviewer_lib9workspaceNtB4_9Workspace13recents_store
FN:857,_RNvMs_NtCskXOmkMderRI_12mdviewer_lib9workspaceNtB4_9Workspace13session_store
FN:415,_RNvMs_NtCskXOmkMderRI_12mdviewer_lib9workspaceNtB4_9Workspace14drive_open_url
FN:762,_RNvMs_NtCskXOmkMderRI_12mdviewer_lib9workspaceNtB4_9Workspace14drive_poll_one
FN:1091,_RNvMs_NtCskXOmkMderRI_12mdviewer_lib9workspaceNtB4_9Workspace14settings_store
FN:864,_RNvMs_NtCskXOmkMderRI_12mdviewer_lib9workspaceNtB4_9Workspace15persist_session
FN:1137,_RNvMs_NtCskXOmkMderRI_12mdviewer_lib9workspaceNtB4_9Workspace16comments_for_mut
FN:727,_RNvMs_NtCskXOmkMderRI_12mdviewer_lib9workspaceNtB4_9Workspace16drive_disconnect
FN:291,_RNvMs_NtCskXOmkMderRI_12mdviewer_lib9workspaceNtB4_9Workspace17id_maps_arc_clone
FN:643,_RNvMs_NtCskXOmkMderRI_12mdviewer_lib9workspaceNtB4_9Workspace18drive_connect_prep
FN:361,_RNvMs_NtCskXOmkMderRI_12mdviewer_lib9workspaceNtB4_9Workspace18drive_resolve_path
FN:301,_RNvMs_NtCskXOmkMderRI_12mdviewer_lib9workspaceNtB4_9Workspace18drive_tab_file_ids
FN:495,_RNvMs_NtCskXOmkMderRI_12mdviewer_lib9workspaceNtB4_9Workspace18save_drive_api_tab
FN:1094,_RNvMs_NtCskXOmkMderRI_12mdviewer_lib9workspaceNtB4_9Workspace18settings_store_mut
FN:654,_RNvMs_NtCskXOmkMderRI_12mdviewer_lib9workspaceNtB4_9Workspace19drive_connect_apply
FN:1076,_RNvMs_NtCskXOmkMderRI_12mdviewer_lib9workspaceNtB4_9Workspace19list_open_documents
FN:1059,_RNvMs_NtCskXOmkMderRI_12mdviewer_lib9workspaceNtB4_9Workspace20prime_saved_snapshot
FN:1149,_RNvMs_NtCskXOmkMderRI_12mdviewer_lib9workspaceNtB4_9Workspace22resolve_anchor_for_tab
FN:546,_RNvMs_NtCskXOmkMderRI_12mdviewer_lib9workspaceNtB4_9Workspace22save_drive_desktop_tab
FN:592,_RNvMs_NtCskXOmkMderRI_12mdviewer_lib9workspaceNtB4_9Workspace23drive_get_collaborators
FN:694,_RNvMs_NtCskXOmkMderRI_12mdviewer_lib9workspaceNtB4_9Workspace28drive_connect_apply_no_spawn
FN:344,_RNvMs_NtCskXOmkMderRI_12mdviewer_lib9workspaceNtB4_9Workspace39recompute_backends_after_connect_change
FN:241,_RNvMs_NtCskXOmkMderRI_12mdviewer_lib9workspaceNtB4_9Workspace3new
FN:1118,_RNvMs_NtCskXOmkMderRI_12mdviewer_lib9workspaceNtB4_9Workspace3tab
FN:1126,_RNvMs_NtCskXOmkMderRI_12mdviewer_lib9workspaceNtB4_9Workspace7tab_mut
FN:1037,_RNvMs_NtCskXOmkMderRI_12mdviewer_lib9workspaceNtB4_9Workspace9close_tab
FN:1102,_RNvMs_NtCskXOmkMderRI_12mdviewer_lib9workspaceNtB4_9Workspace9doc_prefs
FN:1227,_RNvNtCskXOmkMderRI_12mdviewer_lib9workspace16default_open_url
FN:1251,_RNvNtCskXOmkMderRI_12mdviewer_lib9workspace16make_test_opener
FN:1493,_RNvNtCskXOmkMderRI_12mdviewer_lib9workspace16run_polling_loop
FN:1639,_RNvNtCskXOmkMderRI_12mdviewer_lib9workspace28run_polling_loop_with_cancel
FN:375,_RNvXNvMs_NtCskXOmkMderRI_12mdviewer_lib9workspaceNtB7_9Workspace18drive_resolve_pathNtB2_10ApiBackendNtNtNtB9_5drive7file_id13FileIdBackend10files_list
FN:1326,_RNvXs1_NtCskXOmkMderRI_12mdviewer_lib9workspaceNtB5_14ConflictSourceNtNtCsgEmfK2I1SDS_4core3fmt7Display3fmt
FN:681,_RINvMs_NtCskXOmkMderRI_12mdviewer_lib9workspaceNtB5_9Workspace19drive_connect_innerNCNvB5_16make_test_opener0EB7_
FN:1178,_RINvNtCskXOmkMderRI_12mdviewer_lib9workspace19drive_connect_oauthNCNvB2_16make_test_opener0EB4_
FN:1178,_RINvNtCskXOmkMderRI_12mdviewer_lib9workspace19drive_connect_oauthNvB2_16default_open_urlEB4_
FN:1206,_RNCINvNtCskXOmkMderRI_12mdviewer_lib9workspace19drive_connect_oauthNCNvB4_16make_test_opener0E0B6_
FN:1212,_RNCINvNtCskXOmkMderRI_12mdviewer_lib9workspace19drive_connect_oauthNCNvB4_16make_test_opener0Es_0B6_
FN:1206,_RNCINvNtCskXOmkMderRI_12mdviewer_lib9workspace19drive_connect_oauthNvB4_16default_open_urlE0B6_
FN:1212,_RNCINvNtCskXOmkMderRI_12mdviewer_lib9workspace19drive_connect_oauthNvB4_16default_open_urlEs_0B6_
FN:1606,_RNCNCNCNCNvNtCskXOmkMderRI_12mdviewer_lib9workspace16run_polling_loop0s_000Bb_
FN:1507,_RNCNCNCNvNtCskXOmkMderRI_12mdviewer_lib9workspace16run_polling_loop000B9_
FN:1553,_RNCNCNCNvNtCskXOmkMderRI_12mdviewer_lib9workspace16run_polling_loop0s_00B9_
FN:868,_RNCNCNvMs_NtCskXOmkMderRI_12mdviewer_lib9workspaceNtB8_9Workspace15persist_session00Ba_
FN:1257,_RNCNCNvNtCskXOmkMderRI_12mdviewer_lib9workspace16make_test_opener00B7_
FN:1501,_RNCNCNvNtCskXOmkMderRI_12mdviewer_lib9workspace16run_polling_loop00B7_
FN:1549,_RNCNCNvNtCskXOmkMderRI_12mdviewer_lib9workspace16run_polling_loop0s_0B7_
FN:1649,_RNCNCNvNtCskXOmkMderRI_12mdviewer_lib9workspace28run_polling_loop_with_cancel00B7_
FN:103,_RNCNvMNtCskXOmkMderRI_12mdviewer_lib9workspaceNtB4_3Tab15compute_backend0B6_
FN:1407,_RNCNvMs2_NtCskXOmkMderRI_12mdviewer_lib9workspaceNtB7_9Workspace26polling_cancel_rx_for_test0B9_
FN:1017,_RNCNvMs_NtCskXOmkMderRI_12mdviewer_lib9workspaceNtB6_9Workspace11refresh_tab0B8_
FN:1029,_RNCNvMs_NtCskXOmkMderRI_12mdviewer_lib9workspaceNtB6_9Workspace11refresh_tabs0_0B8_
FN:1030,_RNCNvMs_NtCskXOmkMderRI_12mdviewer_lib9workspaceNtB6_9Workspace11refresh_tabs1_0B8_
FN:1019,_RNCNvMs_NtCskXOmkMderRI_12mdviewer_lib9workspaceNtB6_9Workspace11refresh_tabs_0B8_
FN:1134,_RNCNvMs_NtCskXOmkMderRI_12mdviewer_lib9workspaceNtB6_9Workspace12comments_fors_0B8_
FN:325,_RNCNvMs_NtCskXOmkMderRI_12mdviewer_lib9workspaceNtB6_9Workspace12drive_status0B8_
FN:1087,_RNCNvMs_NtCskXOmkMderRI_12mdviewer_lib9workspaceNtB6_9Workspace12find_by_path0B8_
FN:1088,_RNCNvMs_NtCskXOmkMderRI_12mdviewer_lib9workspaceNtB6_9Workspace12find_by_paths_0B8_
FN:883,_RNCNvMs_NtCskXOmkMderRI_12mdviewer_lib9workspaceNtB6_9Workspace13open_document0B8_
FN:927,_RNCNvMs_NtCskXOmkMderRI_12mdviewer_lib9workspaceNtB6_9Workspace13open_documents0_0B8_
FN:960,_RNCNvMs_NtCskXOmkMderRI_12mdviewer_lib9workspaceNtB6_9Workspace13open_documents1_0B8_
FN:889,_RNCNvMs_NtCskXOmkMderRI_12mdviewer_lib9workspaceNtB6_9Workspace13open_documents_0B8_
FN:422,_RNCNvMs_NtCskXOmkMderRI_12mdviewer_lib9workspaceNtB6_9Workspace14drive_open_url0B8_
FN:444,_RNCNvMs_NtCskXOmkMderRI_12mdviewer_lib9workspaceNtB6_9Workspace14drive_open_urls_0B8_
FN:774,_RNCNvMs_NtCskXOmkMderRI_12mdviewer_lib9workspaceNtB6_9Workspace14drive_poll_one0B8_
FN:824,_RNCNvMs_NtCskXOmkMderRI_12mdviewer_lib9workspaceNtB6_9Workspace14drive_poll_ones0_0B8_
FN:825,_RNCNvMs_NtCskXOmkMderRI_12mdviewer_lib9workspaceNtB6_9Workspace14drive_poll_ones1_0B8_
FN:843,_RNCNvMs_NtCskXOmkMderRI_12mdviewer_lib9workspaceNtB6_9Workspace14drive_poll_ones2_0B8_
FN:777,_RNCNvMs_NtCskXOmkMderRI_12mdviewer_lib9workspaceNtB6_9Workspace14drive_poll_ones_0B8_
FN:868,_RNCNvMs_NtCskXOmkMderRI_12mdviewer_lib9workspaceNtB6_9Workspace15persist_session0B8_
FN:874,_RNCNvMs_NtCskXOmkMderRI_12mdviewer_lib9workspaceNtB6_9Workspace15persist_sessions0_0B8_
FN:873,_RNCNvMs_NtCskXOmkMderRI_12mdviewer_lib9workspaceNtB6_9Workspace15persist_sessions_0B8_
FN:1141,_RNCNvMs_NtCskXOmkMderRI_12mdviewer_lib9workspaceNtB6_9Workspace16comments_for_muts_0B8_
FN:292,_RNCNvMs_NtCskXOmkMderRI_12mdviewer_lib9workspaceNtB6_9Workspace17id_maps_arc_clone0B8_
FN:385,_RNCNvMs_NtCskXOmkMderRI_12mdviewer_lib9workspaceNtB6_9Workspace18drive_resolve_path0B8_
FN:304,_RNCNvMs_NtCskXOmkMderRI_12mdviewer_lib9workspaceNtB6_9Workspace18drive_tab_file_ids0B8_
FN:305,_RNCNvMs_NtCskXOmkMderRI_12mdviewer_lib9workspaceNtB6_9Workspace18drive_tab_file_idss_0B8_
FN:509,_RNCNvMs_NtCskXOmkMderRI_12mdviewer_lib9workspaceNtB6_9Workspace18save_drive_api_tab0B8_
FN:519,_RNCNvMs_NtCskXOmkMderRI_12mdviewer_lib9workspaceNtB6_9Workspace18save_drive_api_tabs0_0B8_
FN:510,_RNCNvMs_NtCskXOmkMderRI_12mdviewer_lib9workspaceNtB6_9Workspace18save_drive_api_tabs_0B8_
FN:1077,_RNCNvMs_NtCskXOmkMderRI_12mdviewer_lib9workspaceNtB6_9Workspace19list_open_documents0B8_
FN:1060,_RNCNvMs_NtCskXOmkMderRI_12mdviewer_lib9workspaceNtB6_9Workspace20prime_saved_snapshot0B8_
FN:1061,_RNCNvMs_NtCskXOmkMderRI_12mdviewer_lib9workspaceNtB6_9Workspace20prime_saved_snapshots_0B8_
FN:1153,_RNCNvMs_NtCskXOmkMderRI_12mdviewer_lib9workspaceNtB6_9Workspace22resolve_anchor_for_tab0B8_
FN:554,_RNCNvMs_NtCskXOmkMderRI_12mdviewer_lib9workspaceNtB6_9Workspace22save_drive_desktop_tab0B8_
FN:558,_RNCNvMs_NtCskXOmkMderRI_12mdviewer_lib9workspaceNtB6_9Workspace22save_drive_desktop_tabs0_0B8_
FN:555,_RNCNvMs_NtCskXOmkMderRI_12mdviewer_lib9workspaceNtB6_9Workspace22save_drive_desktop_tabs_0B8_
FN:713,_RNCNvMs_NtCskXOmkMderRI_12mdviewer_lib9workspaceNtB6_9Workspace28drive_connect_apply_no_spawn0B8_
FN:1047,_RNCNvMs_NtCskXOmkMderRI_12mdviewer_lib9workspaceNtB6_9Workspace9close_tab0B8_
FN:1254,_RNCNvNtCskXOmkMderRI_12mdviewer_lib9workspace16make_test_opener0B5_
FN:1493,_RNCNvNtCskXOmkMderRI_12mdviewer_lib9workspace16run_polling_loop0B5_
FN:1642,_RNCNvNtCskXOmkMderRI_12mdviewer_lib9workspace28run_polling_loop_with_cancel0B5_
FN:681,_RINvMs_NtCs2DXdqaz45d1_12mdviewer_lib9workspaceNtB5_9Workspace19drive_connect_innerpEB7_
FN:1178,_RINvNtCs2DXdqaz45d1_12mdviewer_lib9workspace19drive_connect_oauthpEB4_
FN:1206,_RNCINvNtCs2DXdqaz45d1_12mdviewer_lib9workspace19drive_connect_oauthpE0B6_
FN:1212,_RNCINvNtCs2DXdqaz45d1_12mdviewer_lib9workspace19drive_connect_oauthpEs_0B6_
FN:868,_RNCNCNvMs_NtCs2DXdqaz45d1_12mdviewer_lib9workspaceNtB8_9Workspace15persist_session00Ba_
FN:1257,_RNCNCNvNtCs2DXdqaz45d1_12mdviewer_lib9workspace16make_test_opener00B7_
FN:103,_RNCNvMNtCs2DXdqaz45d1_12mdviewer_lib9workspaceNtB4_3Tab15compute_backend0B6_
FN:1407,_RNCNvMs2_NtCs2DXdqaz45d1_12mdviewer_lib9workspaceNtB7_9Workspace26polling_cancel_rx_for_test0B9_
FN:1017,_RNCNvMs_NtCs2DXdqaz45d1_12mdviewer_lib9workspaceNtB6_9Workspace11refresh_tab0B8_
FN:1029,_RNCNvMs_NtCs2DXdqaz45d1_12mdviewer_lib9workspaceNtB6_9Workspace11refresh_tabs0_0B8_
FN:1030,_RNCNvMs_NtCs2DXdqaz45d1_12mdviewer_lib9workspaceNtB6_9Workspace11refresh_tabs1_0B8_
FN:1019,_RNCNvMs_NtCs2DXdqaz45d1_12mdviewer_lib9workspaceNtB6_9Workspace11refresh_tabs_0B8_
FN:1134,_RNCNvMs_NtCs2DXdqaz45d1_12mdviewer_lib9workspaceNtB6_9Workspace12comments_fors_0B8_
FN:1087,_RNCNvMs_NtCs2DXdqaz45d1_12mdviewer_lib9workspaceNtB6_9Workspace12find_by_path0B8_
FN:1088,_RNCNvMs_NtCs2DXdqaz45d1_12mdviewer_lib9workspaceNtB6_9Workspace12find_by_paths_0B8_
FN:883,_RNCNvMs_NtCs2DXdqaz45d1_12mdviewer_lib9workspaceNtB6_9Workspace13open_document0B8_
FN:927,_RNCNvMs_NtCs2DXdqaz45d1_12mdviewer_lib9workspaceNtB6_9Workspace13open_documents0_0B8_
FN:960,_RNCNvMs_NtCs2DXdqaz45d1_12mdviewer_lib9workspaceNtB6_9Workspace13open_documents1_0B8_
FN:889,_RNCNvMs_NtCs2DXdqaz45d1_12mdviewer_lib9workspaceNtB6_9Workspace13open_documents_0B8_
FN:422,_RNCNvMs_NtCs2DXdqaz45d1_12mdviewer_lib9workspaceNtB6_9Workspace14drive_open_url0B8_
FN:444,_RNCNvMs_NtCs2DXdqaz45d1_12mdviewer_lib9workspaceNtB6_9Workspace14drive_open_urls_0B8_
FN:868,_RNCNvMs_NtCs2DXdqaz45d1_12mdviewer_lib9workspaceNtB6_9Workspace15persist_session0B8_
FN:874,_RNCNvMs_NtCs2DXdqaz45d1_12mdviewer_lib9workspaceNtB6_9Workspace15persist_sessions0_0B8_
FN:873,_RNCNvMs_NtCs2DXdqaz45d1_12mdviewer_lib9workspaceNtB6_9Workspace15persist_sessions_0B8_
FN:1141,_RNCNvMs_NtCs2DXdqaz45d1_12mdviewer_lib9workspaceNtB6_9Workspace16comments_for_muts_0B8_
FN:385,_RNCNvMs_NtCs2DXdqaz45d1_12mdviewer_lib9workspaceNtB6_9Workspace18drive_resolve_path0B8_
FN:509,_RNCNvMs_NtCs2DXdqaz45d1_12mdviewer_lib9workspaceNtB6_9Workspace18save_drive_api_tab0B8_
FN:519,_RNCNvMs_NtCs2DXdqaz45d1_12mdviewer_lib9workspaceNtB6_9Workspace18save_drive_api_tabs0_0B8_
FN:510,_RNCNvMs_NtCs2DXdqaz45d1_12mdviewer_lib9workspaceNtB6_9Workspace18save_drive_api_tabs_0B8_
FN:1077,_RNCNvMs_NtCs2DXdqaz45d1_12mdviewer_lib9workspaceNtB6_9Workspace19list_open_documents0B8_
FN:1060,_RNCNvMs_NtCs2DXdqaz45d1_12mdviewer_lib9workspaceNtB6_9Workspace20prime_saved_snapshot0B8_
FN:1061,_RNCNvMs_NtCs2DXdqaz45d1_12mdviewer_lib9workspaceNtB6_9Workspace20prime_saved_snapshots_0B8_
FN:1153,_RNCNvMs_NtCs2DXdqaz45d1_12mdviewer_lib9workspaceNtB6_9Workspace22resolve_anchor_for_tab0B8_
FN:554,_RNCNvMs_NtCs2DXdqaz45d1_12mdviewer_lib9workspaceNtB6_9Workspace22save_drive_desktop_tab0B8_
FN:558,_RNCNvMs_NtCs2DXdqaz45d1_12mdviewer_lib9workspaceNtB6_9Workspace22save_drive_desktop_tabs0_0B8_
FN:555,_RNCNvMs_NtCs2DXdqaz45d1_12mdviewer_lib9workspaceNtB6_9Workspace22save_drive_desktop_tabs_0B8_
FN:713,_RNCNvMs_NtCs2DXdqaz45d1_12mdviewer_lib9workspaceNtB6_9Workspace28drive_connect_apply_no_spawn0B8_
FN:1047,_RNCNvMs_NtCs2DXdqaz45d1_12mdviewer_lib9workspaceNtB6_9Workspace9close_tab0B8_
FN:1254,_RNCNvNtCs2DXdqaz45d1_12mdviewer_lib9workspace16make_test_opener0B5_
FN:97,_RNvMNtCs2DXdqaz45d1_12mdviewer_lib9workspaceNtB2_3Tab15compute_backend
FN:81,_RNvMNtCs2DXdqaz45d1_12mdviewer_lib9workspaceNtB2_3Tab7summary
FN:1348,_RNvMs2_NtCs2DXdqaz45d1_12mdviewer_lib9workspaceNtB5_9Workspace12new_for_test
FN:1374,_RNvMs2_NtCs2DXdqaz45d1_12mdviewer_lib9workspaceNtB5_9Workspace22drive_connect_for_test
FN:1361,_RNvMs2_NtCs2DXdqaz45d1_12mdviewer_lib9workspaceNtB5_9Workspace22set_drive_api_for_test
FN:1414,_RNvMs2_NtCs2DXdqaz45d1_12mdviewer_lib9workspaceNtB5_9Workspace23test_open_drive_api_tab
FN:1404,_RNvMs2_NtCs2DXdqaz45d1_12mdviewer_lib9workspaceNtB5_9Workspace26polling_cancel_rx_for_test
FN:1448,_RNvMs2_NtCs2DXdqaz45d1_12mdviewer_lib9workspaceNtB5_9Workspace27test_open_drive_desktop_tab
FN:1389,_RNvMs2_NtCs2DXdqaz45d1_12mdviewer_lib9workspaceNtB5_9Workspace39drive_connect_capture_auth_url_for_test
FN:1016,_RNvMs_NtCs2DXdqaz45d1_12mdviewer_lib9workspaceNtB4_9Workspace11refresh_tab
FN:1067,_RNvMs_NtCs2DXdqaz45d1_12mdviewer_lib9workspaceNtB4_9Workspace12activate_tab
FN:1130,_RNvMs_NtCs2DXdqaz45d1_12mdviewer_lib9workspaceNtB4_9Workspace12comments_for
FN:1084,_RNvMs_NtCs2DXdqaz45d1_12mdviewer_lib9workspaceNtB4_9Workspace12find_by_path
FN:1080,_RNvMs_NtCs2DXdqaz45d1_12mdviewer_lib9workspaceNtB4_9Workspace13active_tab_id
FN:1110,_RNvMs_NtCs2DXdqaz45d1_12mdviewer_lib9workspaceNtB4_9Workspace13doc_prefs_mut
FN:280,_RNvMs_NtCs2DXdqaz45d1_12mdviewer_lib9workspaceNtB4_9Workspace13drive_api_arc
FN:628,_RNvMs_NtCs2DXdqaz45d1_12mdviewer_lib9workspaceNtB4_9Workspace13drive_connect
FN:882,_RNvMs_NtCs2DXdqaz45d1_12mdviewer_lib9workspaceNtB4_9Workspace13open_document
FN:1097,_RNvMs_NtCs2DXdqaz45d1_12mdviewer_lib9workspaceNtB4_9Workspace13recents_store
FN:857,_RNvMs_NtCs2DXdqaz45d1_12mdviewer_lib9workspaceNtB4_9Workspace13session_store
FN:415,_RNvMs_NtCs2DXdqaz45d1_12mdviewer_lib9workspaceNtB4_9Workspace14drive_open_url
FN:864,_RNvMs_NtCs2DXdqaz45d1_12mdviewer_lib9workspaceNtB4_9Workspace15persist_session
FN:1137,_RNvMs_NtCs2DXdqaz45d1_12mdviewer_lib9workspaceNtB4_9Workspace16comments_for_mut
FN:727,_RNvMs_NtCs2DXdqaz45d1_12mdviewer_lib9workspaceNtB4_9Workspace16drive_disconnect
FN:643,_RNvMs_NtCs2DXdqaz45d1_12mdviewer_lib9workspaceNtB4_9Workspace18drive_connect_prep
FN:361,_RNvMs_NtCs2DXdqaz45d1_12mdviewer_lib9workspaceNtB4_9Workspace18drive_resolve_path
FN:495,_RNvMs_NtCs2DXdqaz45d1_12mdviewer_lib9workspaceNtB4_9Workspace18save_drive_api_tab
FN:1094,_RNvMs_NtCs2DXdqaz45d1_12mdviewer_lib9workspaceNtB4_9Workspace18settings_store_mut
FN:654,_RNvMs_NtCs2DXdqaz45d1_12mdviewer_lib9workspaceNtB4_9Workspace19drive_connect_apply
FN:1076,_RNvMs_NtCs2DXdqaz45d1_12mdviewer_lib9workspaceNtB4_9Workspace19list_open_documents
FN:1059,_RNvMs_NtCs2DXdqaz45d1_12mdviewer_lib9workspaceNtB4_9Workspace20prime_saved_snapshot
FN:1149,_RNvMs_NtCs2DXdqaz45d1_12mdviewer_lib9workspaceNtB4_9Workspace22resolve_anchor_for_tab
FN:546,_RNvMs_NtCs2DXdqaz45d1_12mdviewer_lib9workspaceNtB4_9Workspace22save_drive_desktop_tab
FN:592,_RNvMs_NtCs2DXdqaz45d1_12mdviewer_lib9workspaceNtB4_9Workspace23drive_get_collaborators
FN:694,_RNvMs_NtCs2DXdqaz45d1_12mdviewer_lib9workspaceNtB4_9Workspace28drive_connect_apply_no_spawn
FN:344,_RNvMs_NtCs2DXdqaz45d1_12mdviewer_lib9workspaceNtB4_9Workspace39recompute_backends_after_connect_change
FN:241,_RNvMs_NtCs2DXdqaz45d1_12mdviewer_lib9workspaceNtB4_9Workspace3new
FN:1118,_RNvMs_NtCs2DXdqaz45d1_12mdviewer_lib9workspaceNtB4_9Workspace3tab
FN:1126,_RNvMs_NtCs2DXdqaz45d1_12mdviewer_lib9workspaceNtB4_9Workspace7tab_mut
FN:1037,_RNvMs_NtCs2DXdqaz45d1_12mdviewer_lib9workspaceNtB4_9Workspace9close_tab
FN:1102,_RNvMs_NtCs2DXdqaz45d1_12mdviewer_lib9workspaceNtB4_9Workspace9doc_prefs
FN:1227,_RNvNtCs2DXdqaz45d1_12mdviewer_lib9workspace16default_open_url
FN:1251,_RNvNtCs2DXdqaz45d1_12mdviewer_lib9workspace16make_test_opener
FN:1639,_RNvNtCs2DXdqaz45d1_12mdviewer_lib9workspace28run_polling_loop_with_cancel
FN:375,_RNvXNvMs_NtCs2DXdqaz45d1_12mdviewer_lib9workspaceNtB7_9Workspace18drive_resolve_pathNtB2_10ApiBackendNtNtNtB9_5drive7file_id13FileIdBackend10files_list
FN:1317,_RNvMs0_NtCs2DXdqaz45d1_12mdviewer_lib9workspaceNtB5_14ConflictSource7to_wire
FN:272,_RNvMs_NtCs2DXdqaz45d1_12mdviewer_lib9workspaceNtB4_9Workspace10config_dir
FN:317,_RNvMs_NtCs2DXdqaz45d1_12mdviewer_lib9workspaceNtB4_9Workspace12drive_status
FN:762,_RNvMs_NtCs2DXdqaz45d1_12mdviewer_lib9workspaceNtB4_9Workspace14drive_poll_one
FN:1091,_RNvMs_NtCs2DXdqaz45d1_12mdviewer_lib9workspaceNtB4_9Workspace14settings_store
FN:291,_RNvMs_NtCs2DXdqaz45d1_12mdviewer_lib9workspaceNtB4_9Workspace17id_maps_arc_clone
FN:301,_RNvMs_NtCs2DXdqaz45d1_12mdviewer_lib9workspaceNtB4_9Workspace18drive_tab_file_ids
FN:1493,_RNvNtCs2DXdqaz45d1_12mdviewer_lib9workspace16run_polling_loop
FN:1326,_RNvXs1_NtCs2DXdqaz45d1_12mdviewer_lib9workspaceNtB5_14ConflictSourceNtNtCsgEmfK2I1SDS_4core3fmt7Display3fmt
FN:1606,_RNCNCNCNCNvNtCs2DXdqaz45d1_12mdviewer_lib9workspace16run_polling_loop0s_000Bb_
FN:1507,_RNCNCNCNvNtCs2DXdqaz45d1_12mdviewer_lib9workspace16run_polling_loop000B9_
FN:1553,_RNCNCNCNvNtCs2DXdqaz45d1_12mdviewer_lib9workspace16run_polling_loop0s_00B9_
FN:1501,_RNCNCNvNtCs2DXdqaz45d1_12mdviewer_lib9workspace16run_polling_loop00B7_
FN:1549,_RNCNCNvNtCs2DXdqaz45d1_12mdviewer_lib9workspace16run_polling_loop0s_0B7_
FN:1649,_RNCNCNvNtCs2DXdqaz45d1_12mdviewer_lib9workspace28run_polling_loop_with_cancel00B7_
FN:325,_RNCNvMs_NtCs2DXdqaz45d1_12mdviewer_lib9workspaceNtB6_9Workspace12drive_status0B8_
FN:774,_RNCNvMs_NtCs2DXdqaz45d1_12mdviewer_lib9workspaceNtB6_9Workspace14drive_poll_one0B8_
FN:824,_RNCNvMs_NtCs2DXdqaz45d1_12mdviewer_lib9workspaceNtB6_9Workspace14drive_poll_ones0_0B8_
FN:825,_RNCNvMs_NtCs2DXdqaz45d1_12mdviewer_lib9workspaceNtB6_9Workspace14drive_poll_ones1_0B8_
FN:843,_RNCNvMs_NtCs2DXdqaz45d1_12mdviewer_lib9workspaceNtB6_9Workspace14drive_poll_ones2_0B8_
FN:777,_RNCNvMs_NtCs2DXdqaz45d1_12mdviewer_lib9workspaceNtB6_9Workspace14drive_poll_ones_0B8_
FN:292,_RNCNvMs_NtCs2DXdqaz45d1_12mdviewer_lib9workspaceNtB6_9Workspace17id_maps_arc_clone0B8_
FN:304,_RNCNvMs_NtCs2DXdqaz45d1_12mdviewer_lib9workspaceNtB6_9Workspace18drive_tab_file_ids0B8_
FN:305,_RNCNvMs_NtCs2DXdqaz45d1_12mdviewer_lib9workspaceNtB6_9Workspace18drive_tab_file_idss_0B8_
FN:1493,_RNCNvNtCs2DXdqaz45d1_12mdviewer_lib9workspace16run_polling_loop0B5_
FN:1642,_RNCNvNtCs2DXdqaz45d1_12mdviewer_lib9workspace28run_polling_loop_with_cancel0B5_
FN:1676,_RNvNtNtCs2DXdqaz45d1_12mdviewer_lib9workspace5testss_37conflict_source_wire_format_is_stable
FNDA:16,_RNvMNtCskXOmkMderRI_12mdviewer_lib9workspaceNtB2_3Tab15compute_backend
FNDA:3,_RNvMNtCskXOmkMderRI_12mdviewer_lib9workspaceNtB2_3Tab7summary
FNDA:0,_RNvMs0_NtCskXOmkMderRI_12mdviewer_lib9workspaceNtB5_14ConflictSource7to_wire
FNDA:15,_RNvMs2_NtCskXOmkMderRI_12mdviewer_lib9workspaceNtB5_9Workspace12new_for_test
FNDA:3,_RNvMs2_NtCskXOmkMderRI_12mdviewer_lib9workspaceNtB5_9Workspace22drive_connect_for_test
FNDA:7,_RNvMs2_NtCskXOmkMderRI_12mdviewer_lib9workspaceNtB5_9Workspace22set_drive_api_for_test
FNDA:4,_RNvMs2_NtCskXOmkMderRI_12mdviewer_lib9workspaceNtB5_9Workspace23test_open_drive_api_tab
FNDA:1,_RNvMs2_NtCskXOmkMderRI_12mdviewer_lib9workspaceNtB5_9Workspace26polling_cancel_rx_for_test
FNDA:1,_RNvMs2_NtCskXOmkMderRI_12mdviewer_lib9workspaceNtB5_9Workspace27test_open_drive_desktop_tab
FNDA:1,_RNvMs2_NtCskXOmkMderRI_12mdviewer_lib9workspaceNtB5_9Workspace39drive_connect_capture_auth_url_for_test
FNDA:8,_RNvMs_NtCskXOmkMderRI_12mdviewer_lib9workspaceNtB4_9Workspace10config_dir
FNDA:2,_RNvMs_NtCskXOmkMderRI_12mdviewer_lib9workspaceNtB4_9Workspace11refresh_tab
FNDA:2,_RNvMs_NtCskXOmkMderRI_12mdviewer_lib9workspaceNtB4_9Workspace12activate_tab
FNDA:7,_RNvMs_NtCskXOmkMderRI_12mdviewer_lib9workspaceNtB4_9Workspace12comments_for
FNDA:0,_RNvMs_NtCskXOmkMderRI_12mdviewer_lib9workspaceNtB4_9Workspace12drive_status
FNDA:20,_RNvMs_NtCskXOmkMderRI_12mdviewer_lib9workspaceNtB4_9Workspace12find_by_path
FNDA:5,_RNvMs_NtCskXOmkMderRI_12mdviewer_lib9workspaceNtB4_9Workspace13active_tab_id
FNDA:7,_RNvMs_NtCskXOmkMderRI_12mdviewer_lib9workspaceNtB4_9Workspace13doc_prefs_mut
FNDA:1,_RNvMs_NtCskXOmkMderRI_12mdviewer_lib9workspaceNtB4_9Workspace13drive_api_arc
FNDA:0,_RNvMs_NtCskXOmkMderRI_12mdviewer_lib9workspaceNtB4_9Workspace13drive_connect
FNDA:20,_RNvMs_NtCskXOmkMderRI_12mdviewer_lib9workspaceNtB4_9Workspace13open_document
FNDA:2,_RNvMs_NtCskXOmkMderRI_12mdviewer_lib9workspaceNtB4_9Workspace13recents_store
FNDA:0,_RNvMs_NtCskXOmkMderRI_12mdviewer_lib9workspaceNtB4_9Workspace13session_store
FNDA:3,_RNvMs_NtCskXOmkMderRI_12mdviewer_lib9workspaceNtB4_9Workspace14drive_open_url
FNDA:5,_RNvMs_NtCskXOmkMderRI_12mdviewer_lib9workspaceNtB4_9Workspace14drive_poll_one
FNDA:10,_RNvMs_NtCskXOmkMderRI_12mdviewer_lib9workspaceNtB4_9Workspace14settings_store
FNDA:23,_RNvMs_NtCskXOmkMderRI_12mdviewer_lib9workspaceNtB4_9Workspace15persist_session
FNDA:2,_RNvMs_NtCskXOmkMderRI_12mdviewer_lib9workspaceNtB4_9Workspace16comments_for_mut
FNDA:1,_RNvMs_NtCskXOmkMderRI_12mdviewer_lib9workspaceNtB4_9Workspace16drive_disconnect
FNDA:1,_RNvMs_NtCskXOmkMderRI_12mdviewer_lib9workspaceNtB4_9Workspace17id_maps_arc_clone
FNDA:4,_RNvMs_NtCskXOmkMderRI_12mdviewer_lib9workspaceNtB4_9Workspace18drive_connect_prep
FNDA:1,_RNvMs_NtCskXOmkMderRI_12mdviewer_lib9workspaceNtB4_9Workspace18drive_resolve_path
FNDA:0,_RNvMs_NtCskXOmkMderRI_12mdviewer_lib9workspaceNtB4_9Workspace18drive_tab_file_ids
FNDA:1,_RNvMs_NtCskXOmkMderRI_12mdviewer_lib9workspaceNtB4_9Workspace18save_drive_api_tab
FNDA:2,_RNvMs_NtCskXOmkMderRI_12mdviewer_lib9workspaceNtB4_9Workspace18settings_store_mut
FNDA:0,_RNvMs_NtCskXOmkMderRI_12mdviewer_lib9workspaceNtB4_9Workspace19drive_connect_apply
FNDA:5,_RNvMs_NtCskXOmkMderRI_12mdviewer_lib9workspaceNtB4_9Workspace19list_open_documents
FNDA:1,_RNvMs_NtCskXOmkMderRI_12mdviewer_lib9workspaceNtB4_9Workspace20prime_saved_snapshot
FNDA:7,_RNvMs_NtCskXOmkMderRI_12mdviewer_lib9workspaceNtB4_9Workspace22resolve_anchor_for_tab
FNDA:1,_RNvMs_NtCskXOmkMderRI_12mdviewer_lib9workspaceNtB4_9Workspace22save_drive_desktop_tab
FNDA:2,_RNvMs_NtCskXOmkMderRI_12mdviewer_lib9workspaceNtB4_9Workspace23drive_get_collaborators
FNDA:4,_RNvMs_NtCskXOmkMderRI_12mdviewer_lib9workspaceNtB4_9Workspace28drive_connect_apply_no_spawn
FNDA:5,_RNvMs_NtCskXOmkMderRI_12mdviewer_lib9workspaceNtB4_9Workspace39recompute_backends_after_connect_change
FNDA:42,_RNvMs_NtCskXOmkMderRI_12mdviewer_lib9workspaceNtB4_9Workspace3new
FNDA:0,_RNvMs_NtCskXOmkMderRI_12mdviewer_lib9workspaceNtB4_9Workspace3tab
FNDA:0,_RNvMs_NtCskXOmkMderRI_12mdviewer_lib9workspaceNtB4_9Workspace7tab_mut
FNDA:2,_RNvMs_NtCskXOmkMderRI_12mdviewer_lib9workspaceNtB4_9Workspace9close_tab
FNDA:9,_RNvMs_NtCskXOmkMderRI_12mdviewer_lib9workspaceNtB4_9Workspace9doc_prefs
FNDA:0,_RNvNtCskXOmkMderRI_12mdviewer_lib9workspace16default_open_url
FNDA:4,_RNvNtCskXOmkMderRI_12mdviewer_lib9workspace16make_test_opener
FNDA:0,_RNvNtCskXOmkMderRI_12mdviewer_lib9workspace16run_polling_loop
FNDA:0,_RNvNtCskXOmkMderRI_12mdviewer_lib9workspace28run_polling_loop_with_cancel
FNDA:0,_RNvXNvMs_NtCskXOmkMderRI_12mdviewer_lib9workspaceNtB7_9Workspace18drive_resolve_pathNtB2_10ApiBackendNtNtNtB9_5drive7file_id13FileIdBackend10files_list
FNDA:0,_RNvXs1_NtCskXOmkMderRI_12mdviewer_lib9workspaceNtB5_14ConflictSourceNtNtCsgEmfK2I1SDS_4core3fmt7Display3fmt
FNDA:4,_RINvMs_NtCskXOmkMderRI_12mdviewer_lib9workspaceNtB5_9Workspace19drive_connect_innerNCNvB5_16make_test_opener0EB7_
FNDA:4,_RINvNtCskXOmkMderRI_12mdviewer_lib9workspace19drive_connect_oauthNCNvB2_16make_test_opener0EB4_
FNDA:0,_RINvNtCskXOmkMderRI_12mdviewer_lib9workspace19drive_connect_oauthNvB2_16default_open_urlEB4_
FNDA:0,_RNCINvNtCskXOmkMderRI_12mdviewer_lib9workspace19drive_connect_oauthNCNvB4_16make_test_opener0E0B6_
FNDA:0,_RNCINvNtCskXOmkMderRI_12mdviewer_lib9workspace19drive_connect_oauthNCNvB4_16make_test_opener0Es_0B6_
FNDA:0,_RNCINvNtCskXOmkMderRI_12mdviewer_lib9workspace19drive_connect_oauthNvB4_16default_open_urlE0B6_
FNDA:0,_RNCINvNtCskXOmkMderRI_12mdviewer_lib9workspace19drive_connect_oauthNvB4_16default_open_urlEs_0B6_
FNDA:0,_RNCNCNCNCNvNtCskXOmkMderRI_12mdviewer_lib9workspace16run_polling_loop0s_000Bb_
FNDA:0,_RNCNCNCNvNtCskXOmkMderRI_12mdviewer_lib9workspace16run_polling_loop000B9_
FNDA:0,_RNCNCNCNvNtCskXOmkMderRI_12mdviewer_lib9workspace16run_polling_loop0s_00B9_
FNDA:25,_RNCNCNvMs_NtCskXOmkMderRI_12mdviewer_lib9workspaceNtB8_9Workspace15persist_session00Ba_
FNDA:4,_RNCNCNvNtCskXOmkMderRI_12mdviewer_lib9workspace16make_test_opener00B7_
FNDA:0,_RNCNCNvNtCskXOmkMderRI_12mdviewer_lib9workspace16run_polling_loop00B7_
FNDA:0,_RNCNCNvNtCskXOmkMderRI_12mdviewer_lib9workspace16run_polling_loop0s_0B7_
FNDA:0,_RNCNCNvNtCskXOmkMderRI_12mdviewer_lib9workspace28run_polling_loop_with_cancel00B7_
FNDA:0,_RNCNvMNtCskXOmkMderRI_12mdviewer_lib9workspaceNtB4_3Tab15compute_backend0B6_
FNDA:1,_RNCNvMs2_NtCskXOmkMderRI_12mdviewer_lib9workspaceNtB7_9Workspace26polling_cancel_rx_for_test0B9_
FNDA:0,_RNCNvMs_NtCskXOmkMderRI_12mdviewer_lib9workspaceNtB6_9Workspace11refresh_tab0B8_
FNDA:1,_RNCNvMs_NtCskXOmkMderRI_12mdviewer_lib9workspaceNtB6_9Workspace11refresh_tabs0_0B8_
FNDA:1,_RNCNvMs_NtCskXOmkMderRI_12mdviewer_lib9workspaceNtB6_9Workspace11refresh_tabs1_0B8_
FNDA:0,_RNCNvMs_NtCskXOmkMderRI_12mdviewer_lib9workspaceNtB6_9Workspace11refresh_tabs_0B8_
FNDA:2,_RNCNvMs_NtCskXOmkMderRI_12mdviewer_lib9workspaceNtB6_9Workspace12comments_fors_0B8_
FNDA:0,_RNCNvMs_NtCskXOmkMderRI_12mdviewer_lib9workspaceNtB6_9Workspace12drive_status0B8_
FNDA:5,_RNCNvMs_NtCskXOmkMderRI_12mdviewer_lib9workspaceNtB6_9Workspace12find_by_path0B8_
FNDA:3,_RNCNvMs_NtCskXOmkMderRI_12mdviewer_lib9workspaceNtB6_9Workspace12find_by_paths_0B8_
FNDA:0,_RNCNvMs_NtCskXOmkMderRI_12mdviewer_lib9workspaceNtB6_9Workspace13open_document0B8_
FNDA:0,_RNCNvMs_NtCskXOmkMderRI_12mdviewer_lib9workspaceNtB6_9Workspace13open_documents0_0B8_
FNDA:0,_RNCNvMs_NtCskXOmkMderRI_12mdviewer_lib9workspaceNtB6_9Workspace13open_documents1_0B8_
FNDA:3,_RNCNvMs_NtCskXOmkMderRI_12mdviewer_lib9workspaceNtB6_9Workspace13open_documents_0B8_
FNDA:1,_RNCNvMs_NtCskXOmkMderRI_12mdviewer_lib9workspaceNtB6_9Workspace14drive_open_url0B8_
FNDA:0,_RNCNvMs_NtCskXOmkMderRI_12mdviewer_lib9workspaceNtB6_9Workspace14drive_open_urls_0B8_
FNDA:1,_RNCNvMs_NtCskXOmkMderRI_12mdviewer_lib9workspaceNtB6_9Workspace14drive_poll_one0B8_
FNDA:3,_RNCNvMs_NtCskXOmkMderRI_12mdviewer_lib9workspaceNtB6_9Workspace14drive_poll_ones0_0B8_
FNDA:3,_RNCNvMs_NtCskXOmkMderRI_12mdviewer_lib9workspaceNtB6_9Workspace14drive_poll_ones1_0B8_
FNDA:1,_RNCNvMs_NtCskXOmkMderRI_12mdviewer_lib9workspaceNtB6_9Workspace14drive_poll_ones2_0B8_
FNDA:1,_RNCNvMs_NtCskXOmkMderRI_12mdviewer_lib9workspaceNtB6_9Workspace14drive_poll_ones_0B8_
FNDA:25,_RNCNvMs_NtCskXOmkMderRI_12mdviewer_lib9workspaceNtB6_9Workspace15persist_session0B8_
FNDA:22,_RNCNvMs_NtCskXOmkMderRI_12mdviewer_lib9workspaceNtB6_9Workspace15persist_sessions0_0B8_
FNDA:22,_RNCNvMs_NtCskXOmkMderRI_12mdviewer_lib9workspaceNtB6_9Workspace15persist_sessions_0B8_
FNDA:1,_RNCNvMs_NtCskXOmkMderRI_12mdviewer_lib9workspaceNtB6_9Workspace16comments_for_muts_0B8_
FNDA:0,_RNCNvMs_NtCskXOmkMderRI_12mdviewer_lib9workspaceNtB6_9Workspace17id_maps_arc_clone0B8_
FNDA:0,_RNCNvMs_NtCskXOmkMderRI_12mdviewer_lib9workspaceNtB6_9Workspace18drive_resolve_path0B8_
FNDA:0,_RNCNvMs_NtCskXOmkMderRI_12mdviewer_lib9workspaceNtB6_9Workspace18drive_tab_file_ids0B8_
FNDA:0,_RNCNvMs_NtCskXOmkMderRI_12mdviewer_lib9workspaceNtB6_9Workspace18drive_tab_file_idss_0B8_
FNDA:1,_RNCNvMs_NtCskXOmkMderRI_12mdviewer_lib9workspaceNtB6_9Workspace18save_drive_api_tab0B8_
FNDA:0,_RNCNvMs_NtCskXOmkMderRI_12mdviewer_lib9workspaceNtB6_9Workspace18save_drive_api_tabs0_0B8_
FNDA:0,_RNCNvMs_NtCskXOmkMderRI_12mdviewer_lib9workspaceNtB6_9Workspace18save_drive_api_tabs_0B8_
FNDA:6,_RNCNvMs_NtCskXOmkMderRI_12mdviewer_lib9workspaceNtB6_9Workspace19list_open_documents0B8_
FNDA:0,_RNCNvMs_NtCskXOmkMderRI_12mdviewer_lib9workspaceNtB6_9Workspace20prime_saved_snapshot0B8_
FNDA:1,_RNCNvMs_NtCskXOmkMderRI_12mdviewer_lib9workspaceNtB6_9Workspace20prime_saved_snapshots_0B8_
FNDA:2,_RNCNvMs_NtCskXOmkMderRI_12mdviewer_lib9workspaceNtB6_9Workspace22resolve_anchor_for_tab0B8_
FNDA:1,_RNCNvMs_NtCskXOmkMderRI_12mdviewer_lib9workspaceNtB6_9Workspace22save_drive_desktop_tab0B8_
FNDA:0,_RNCNvMs_NtCskXOmkMderRI_12mdviewer_lib9workspaceNtB6_9Workspace22save_drive_desktop_tabs0_0B8_
FNDA:0,_RNCNvMs_NtCskXOmkMderRI_12mdviewer_lib9workspaceNtB6_9Workspace22save_drive_desktop_tabs_0B8_
FNDA:4,_RNCNvMs_NtCskXOmkMderRI_12mdviewer_lib9workspaceNtB6_9Workspace28drive_connect_apply_no_spawn0B8_
FNDA:3,_RNCNvMs_NtCskXOmkMderRI_12mdviewer_lib9workspaceNtB6_9Workspace9close_tab0B8_
FNDA:4,_RNCNvNtCskXOmkMderRI_12mdviewer_lib9workspace16make_test_opener0B5_
FNDA:0,_RNCNvNtCskXOmkMderRI_12mdviewer_lib9workspace16run_polling_loop0B5_
FNDA:0,_RNCNvNtCskXOmkMderRI_12mdviewer_lib9workspace28run_polling_loop_with_cancel0B5_
FNDA:0,_RINvMs_NtCs2DXdqaz45d1_12mdviewer_lib9workspaceNtB5_9Workspace19drive_connect_innerpEB7_
FNDA:0,_RINvNtCs2DXdqaz45d1_12mdviewer_lib9workspace19drive_connect_oauthpEB4_
FNDA:0,_RNCINvNtCs2DXdqaz45d1_12mdviewer_lib9workspace19drive_connect_oauthpE0B6_
FNDA:0,_RNCINvNtCs2DXdqaz45d1_12mdviewer_lib9workspace19drive_connect_oauthpEs_0B6_
FNDA:0,_RNCNCNvMs_NtCs2DXdqaz45d1_12mdviewer_lib9workspaceNtB8_9Workspace15persist_session00Ba_
FNDA:0,_RNCNCNvNtCs2DXdqaz45d1_12mdviewer_lib9workspace16make_test_opener00B7_
FNDA:0,_RNCNvMNtCs2DXdqaz45d1_12mdviewer_lib9workspaceNtB4_3Tab15compute_backend0B6_
FNDA:0,_RNCNvMs2_NtCs2DXdqaz45d1_12mdviewer_lib9workspaceNtB7_9Workspace26polling_cancel_rx_for_test0B9_
FNDA:0,_RNCNvMs_NtCs2DXdqaz45d1_12mdviewer_lib9workspaceNtB6_9Workspace11refresh_tab0B8_
FNDA:0,_RNCNvMs_NtCs2DXdqaz45d1_12mdviewer_lib9workspaceNtB6_9Workspace11refresh_tabs0_0B8_
FNDA:0,_RNCNvMs_NtCs2DXdqaz45d1_12mdviewer_lib9workspaceNtB6_9Workspace11refresh_tabs1_0B8_
FNDA:0,_RNCNvMs_NtCs2DXdqaz45d1_12mdviewer_lib9workspaceNtB6_9Workspace11refresh_tabs_0B8_
FNDA:0,_RNCNvMs_NtCs2DXdqaz45d1_12mdviewer_lib9workspaceNtB6_9Workspace12comments_fors_0B8_
FNDA:0,_RNCNvMs_NtCs2DXdqaz45d1_12mdviewer_lib9workspaceNtB6_9Workspace12find_by_path0B8_
FNDA:0,_RNCNvMs_NtCs2DXdqaz45d1_12mdviewer_lib9workspaceNtB6_9Workspace12find_by_paths_0B8_
FNDA:0,_RNCNvMs_NtCs2DXdqaz45d1_12mdviewer_lib9workspaceNtB6_9Workspace13open_document0B8_
FNDA:0,_RNCNvMs_NtCs2DXdqaz45d1_12mdviewer_lib9workspaceNtB6_9Workspace13open_documents0_0B8_
FNDA:0,_RNCNvMs_NtCs2DXdqaz45d1_12mdviewer_lib9workspaceNtB6_9Workspace13open_documents1_0B8_
FNDA:0,_RNCNvMs_NtCs2DXdqaz45d1_12mdviewer_lib9workspaceNtB6_9Workspace13open_documents_0B8_
FNDA:0,_RNCNvMs_NtCs2DXdqaz45d1_12mdviewer_lib9workspaceNtB6_9Workspace14drive_open_url0B8_
FNDA:0,_RNCNvMs_NtCs2DXdqaz45d1_12mdviewer_lib9workspaceNtB6_9Workspace14drive_open_urls_0B8_
FNDA:0,_RNCNvMs_NtCs2DXdqaz45d1_12mdviewer_lib9workspaceNtB6_9Workspace15persist_session0B8_
FNDA:0,_RNCNvMs_NtCs2DXdqaz45d1_12mdviewer_lib9workspaceNtB6_9Workspace15persist_sessions0_0B8_
FNDA:0,_RNCNvMs_NtCs2DXdqaz45d1_12mdviewer_lib9workspaceNtB6_9Workspace15persist_sessions_0B8_
FNDA:0,_RNCNvMs_NtCs2DXdqaz45d1_12mdviewer_lib9workspaceNtB6_9Workspace16comments_for_muts_0B8_
FNDA:0,_RNCNvMs_NtCs2DXdqaz45d1_12mdviewer_lib9workspaceNtB6_9Workspace18drive_resolve_path0B8_
FNDA:0,_RNCNvMs_NtCs2DXdqaz45d1_12mdviewer_lib9workspaceNtB6_9Workspace18save_drive_api_tab0B8_
FNDA:0,_RNCNvMs_NtCs2DXdqaz45d1_12mdviewer_lib9workspaceNtB6_9Workspace18save_drive_api_tabs0_0B8_
FNDA:0,_RNCNvMs_NtCs2DXdqaz45d1_12mdviewer_lib9workspaceNtB6_9Workspace18save_drive_api_tabs_0B8_
FNDA:0,_RNCNvMs_NtCs2DXdqaz45d1_12mdviewer_lib9workspaceNtB6_9Workspace19list_open_documents0B8_
FNDA:0,_RNCNvMs_NtCs2DXdqaz45d1_12mdviewer_lib9workspaceNtB6_9Workspace20prime_saved_snapshot0B8_
FNDA:0,_RNCNvMs_NtCs2DXdqaz45d1_12mdviewer_lib9workspaceNtB6_9Workspace20prime_saved_snapshots_0B8_
FNDA:0,_RNCNvMs_NtCs2DXdqaz45d1_12mdviewer_lib9workspaceNtB6_9Workspace22resolve_anchor_for_tab0B8_
FNDA:0,_RNCNvMs_NtCs2DXdqaz45d1_12mdviewer_lib9workspaceNtB6_9Workspace22save_drive_desktop_tab0B8_
FNDA:0,_RNCNvMs_NtCs2DXdqaz45d1_12mdviewer_lib9workspaceNtB6_9Workspace22save_drive_desktop_tabs0_0B8_
FNDA:0,_RNCNvMs_NtCs2DXdqaz45d1_12mdviewer_lib9workspaceNtB6_9Workspace22save_drive_desktop_tabs_0B8_
FNDA:0,_RNCNvMs_NtCs2DXdqaz45d1_12mdviewer_lib9workspaceNtB6_9Workspace28drive_connect_apply_no_spawn0B8_
FNDA:0,_RNCNvMs_NtCs2DXdqaz45d1_12mdviewer_lib9workspaceNtB6_9Workspace9close_tab0B8_
FNDA:0,_RNCNvNtCs2DXdqaz45d1_12mdviewer_lib9workspace16make_test_opener0B5_
FNDA:0,_RNvMNtCs2DXdqaz45d1_12mdviewer_lib9workspaceNtB2_3Tab15compute_backend
FNDA:0,_RNvMNtCs2DXdqaz45d1_12mdviewer_lib9workspaceNtB2_3Tab7summary
FNDA:0,_RNvMs2_NtCs2DXdqaz45d1_12mdviewer_lib9workspaceNtB5_9Workspace12new_for_test
FNDA:0,_RNvMs2_NtCs2DXdqaz45d1_12mdviewer_lib9workspaceNtB5_9Workspace22drive_connect_for_test
FNDA:0,_RNvMs2_NtCs2DXdqaz45d1_12mdviewer_lib9workspaceNtB5_9Workspace22set_drive_api_for_test
FNDA:0,_RNvMs2_NtCs2DXdqaz45d1_12mdviewer_lib9workspaceNtB5_9Workspace23test_open_drive_api_tab
FNDA:0,_RNvMs2_NtCs2DXdqaz45d1_12mdviewer_lib9workspaceNtB5_9Workspace26polling_cancel_rx_for_test
FNDA:0,_RNvMs2_NtCs2DXdqaz45d1_12mdviewer_lib9workspaceNtB5_9Workspace27test_open_drive_desktop_tab
FNDA:0,_RNvMs2_NtCs2DXdqaz45d1_12mdviewer_lib9workspaceNtB5_9Workspace39drive_connect_capture_auth_url_for_test
FNDA:0,_RNvMs_NtCs2DXdqaz45d1_12mdviewer_lib9workspaceNtB4_9Workspace11refresh_tab
FNDA:0,_RNvMs_NtCs2DXdqaz45d1_12mdviewer_lib9workspaceNtB4_9Workspace12activate_tab
FNDA:0,_RNvMs_NtCs2DXdqaz45d1_12mdviewer_lib9workspaceNtB4_9Workspace12comments_for
FNDA:0,_RNvMs_NtCs2DXdqaz45d1_12mdviewer_lib9workspaceNtB4_9Workspace12find_by_path
FNDA:0,_RNvMs_NtCs2DXdqaz45d1_12mdviewer_lib9workspaceNtB4_9Workspace13active_tab_id
FNDA:0,_RNvMs_NtCs2DXdqaz45d1_12mdviewer_lib9workspaceNtB4_9Workspace13doc_prefs_mut
FNDA:0,_RNvMs_NtCs2DXdqaz45d1_12mdviewer_lib9workspaceNtB4_9Workspace13drive_api_arc
FNDA:0,_RNvMs_NtCs2DXdqaz45d1_12mdviewer_lib9workspaceNtB4_9Workspace13drive_connect
FNDA:0,_RNvMs_NtCs2DXdqaz45d1_12mdviewer_lib9workspaceNtB4_9Workspace13open_document
FNDA:0,_RNvMs_NtCs2DXdqaz45d1_12mdviewer_lib9workspaceNtB4_9Workspace13recents_store
FNDA:0,_RNvMs_NtCs2DXdqaz45d1_12mdviewer_lib9workspaceNtB4_9Workspace13session_store
FNDA:0,_RNvMs_NtCs2DXdqaz45d1_12mdviewer_lib9workspaceNtB4_9Workspace14drive_open_url
FNDA:0,_RNvMs_NtCs2DXdqaz45d1_12mdviewer_lib9workspaceNtB4_9Workspace15persist_session
FNDA:0,_RNvMs_NtCs2DXdqaz45d1_12mdviewer_lib9workspaceNtB4_9Workspace16comments_for_mut
FNDA:0,_RNvMs_NtCs2DXdqaz45d1_12mdviewer_lib9workspaceNtB4_9Workspace16drive_disconnect
FNDA:0,_RNvMs_NtCs2DXdqaz45d1_12mdviewer_lib9workspaceNtB4_9Workspace18drive_connect_prep
FNDA:0,_RNvMs_NtCs2DXdqaz45d1_12mdviewer_lib9workspaceNtB4_9Workspace18drive_resolve_path
FNDA:0,_RNvMs_NtCs2DXdqaz45d1_12mdviewer_lib9workspaceNtB4_9Workspace18save_drive_api_tab
FNDA:0,_RNvMs_NtCs2DXdqaz45d1_12mdviewer_lib9workspaceNtB4_9Workspace18settings_store_mut
FNDA:0,_RNvMs_NtCs2DXdqaz45d1_12mdviewer_lib9workspaceNtB4_9Workspace19drive_connect_apply
FNDA:0,_RNvMs_NtCs2DXdqaz45d1_12mdviewer_lib9workspaceNtB4_9Workspace19list_open_documents
FNDA:0,_RNvMs_NtCs2DXdqaz45d1_12mdviewer_lib9workspaceNtB4_9Workspace20prime_saved_snapshot
FNDA:0,_RNvMs_NtCs2DXdqaz45d1_12mdviewer_lib9workspaceNtB4_9Workspace22resolve_anchor_for_tab
FNDA:0,_RNvMs_NtCs2DXdqaz45d1_12mdviewer_lib9workspaceNtB4_9Workspace22save_drive_desktop_tab
FNDA:0,_RNvMs_NtCs2DXdqaz45d1_12mdviewer_lib9workspaceNtB4_9Workspace23drive_get_collaborators
FNDA:0,_RNvMs_NtCs2DXdqaz45d1_12mdviewer_lib9workspaceNtB4_9Workspace28drive_connect_apply_no_spawn
FNDA:0,_RNvMs_NtCs2DXdqaz45d1_12mdviewer_lib9workspaceNtB4_9Workspace39recompute_backends_after_connect_change
FNDA:0,_RNvMs_NtCs2DXdqaz45d1_12mdviewer_lib9workspaceNtB4_9Workspace3new
FNDA:0,_RNvMs_NtCs2DXdqaz45d1_12mdviewer_lib9workspaceNtB4_9Workspace3tab
FNDA:0,_RNvMs_NtCs2DXdqaz45d1_12mdviewer_lib9workspaceNtB4_9Workspace7tab_mut
FNDA:0,_RNvMs_NtCs2DXdqaz45d1_12mdviewer_lib9workspaceNtB4_9Workspace9close_tab
FNDA:0,_RNvMs_NtCs2DXdqaz45d1_12mdviewer_lib9workspaceNtB4_9Workspace9doc_prefs
FNDA:0,_RNvNtCs2DXdqaz45d1_12mdviewer_lib9workspace16default_open_url
FNDA:0,_RNvNtCs2DXdqaz45d1_12mdviewer_lib9workspace16make_test_opener
FNDA:0,_RNvNtCs2DXdqaz45d1_12mdviewer_lib9workspace28run_polling_loop_with_cancel
FNDA:0,_RNvXNvMs_NtCs2DXdqaz45d1_12mdviewer_lib9workspaceNtB7_9Workspace18drive_resolve_pathNtB2_10ApiBackendNtNtNtB9_5drive7file_id13FileIdBackend10files_list
FNDA:4,_RNvMs0_NtCs2DXdqaz45d1_12mdviewer_lib9workspaceNtB5_14ConflictSource7to_wire
FNDA:0,_RNvMs_NtCs2DXdqaz45d1_12mdviewer_lib9workspaceNtB4_9Workspace10config_dir
FNDA:0,_RNvMs_NtCs2DXdqaz45d1_12mdviewer_lib9workspaceNtB4_9Workspace12drive_status
FNDA:0,_RNvMs_NtCs2DXdqaz45d1_12mdviewer_lib9workspaceNtB4_9Workspace14drive_poll_one
FNDA:0,_RNvMs_NtCs2DXdqaz45d1_12mdviewer_lib9workspaceNtB4_9Workspace14settings_store
FNDA:0,_RNvMs_NtCs2DXdqaz45d1_12mdviewer_lib9workspaceNtB4_9Workspace17id_maps_arc_clone
FNDA:0,_RNvMs_NtCs2DXdqaz45d1_12mdviewer_lib9workspaceNtB4_9Workspace18drive_tab_file_ids
FNDA:0,_RNvNtCs2DXdqaz45d1_12mdviewer_lib9workspace16run_polling_loop
FNDA:2,_RNvXs1_NtCs2DXdqaz45d1_12mdviewer_lib9workspaceNtB5_14ConflictSourceNtNtCsgEmfK2I1SDS_4core3fmt7Display3fmt
FNDA:0,_RNCNCNCNCNvNtCs2DXdqaz45d1_12mdviewer_lib9workspace16run_polling_loop0s_000Bb_
FNDA:0,_RNCNCNCNvNtCs2DXdqaz45d1_12mdviewer_lib9workspace16run_polling_loop000B9_
FNDA:0,_RNCNCNCNvNtCs2DXdqaz45d1_12mdviewer_lib9workspace16run_polling_loop0s_00B9_
FNDA:0,_RNCNCNvNtCs2DXdqaz45d1_12mdviewer_lib9workspace16run_polling_loop00B7_
FNDA:0,_RNCNCNvNtCs2DXdqaz45d1_12mdviewer_lib9workspace16run_polling_loop0s_0B7_
FNDA:0,_RNCNCNvNtCs2DXdqaz45d1_12mdviewer_lib9workspace28run_polling_loop_with_cancel00B7_
FNDA:0,_RNCNvMs_NtCs2DXdqaz45d1_12mdviewer_lib9workspaceNtB6_9Workspace12drive_status0B8_
FNDA:0,_RNCNvMs_NtCs2DXdqaz45d1_12mdviewer_lib9workspaceNtB6_9Workspace14drive_poll_one0B8_
FNDA:0,_RNCNvMs_NtCs2DXdqaz45d1_12mdviewer_lib9workspaceNtB6_9Workspace14drive_poll_ones0_0B8_
FNDA:0,_RNCNvMs_NtCs2DXdqaz45d1_12mdviewer_lib9workspaceNtB6_9Workspace14drive_poll_ones1_0B8_
FNDA:0,_RNCNvMs_NtCs2DXdqaz45d1_12mdviewer_lib9workspaceNtB6_9Workspace14drive_poll_ones2_0B8_
FNDA:0,_RNCNvMs_NtCs2DXdqaz45d1_12mdviewer_lib9workspaceNtB6_9Workspace14drive_poll_ones_0B8_
FNDA:0,_RNCNvMs_NtCs2DXdqaz45d1_12mdviewer_lib9workspaceNtB6_9Workspace17id_maps_arc_clone0B8_
FNDA:0,_RNCNvMs_NtCs2DXdqaz45d1_12mdviewer_lib9workspaceNtB6_9Workspace18drive_tab_file_ids0B8_
FNDA:0,_RNCNvMs_NtCs2DXdqaz45d1_12mdviewer_lib9workspaceNtB6_9Workspace18drive_tab_file_idss_0B8_
FNDA:0,_RNCNvNtCs2DXdqaz45d1_12mdviewer_lib9workspace16run_polling_loop0B5_
FNDA:0,_RNCNvNtCs2DXdqaz45d1_12mdviewer_lib9workspace28run_polling_loop_with_cancel0B5_
FNDA:1,_RNvNtNtCs2DXdqaz45d1_12mdviewer_lib9workspace5testss_37conflict_source_wire_format_is_stable
FNF:111
FNH:73
DA:81,3
DA:82,3
DA:83,3
DA:84,3
DA:85,3
DA:86,3
DA:97,16
DA:98,16
DA:99,16
DA:100,0
DA:101,0
DA:102,0
DA:103,0
DA:104,0
DA:105,0
DA:106,0
DA:107,0
DA:108,0
DA:109,0
DA:111,0
DA:113,0
DA:115,16
DA:241,42
DA:243,42
DA:244,42
DA:245,42
DA:246,42
DA:247,42
DA:248,42
DA:249,42
DA:250,42
DA:252,42
DA:253,42
DA:254,42
DA:255,42
DA:256,42
DA:260,42
DA:263,42
DA:265,42
DA:272,8
DA:273,8
DA:274,8
DA:280,1
DA:281,1
DA:282,1
DA:291,1
DA:292,1
DA:293,1
DA:301,0
DA:302,0
DA:303,0
DA:304,0
DA:305,0
DA:306,0
DA:307,0
DA:317,0
DA:318,0
DA:322,0
DA:323,0
DA:324,0
DA:325,0
DA:326,0
DA:327,0
DA:328,0
DA:329,0
DA:330,0
DA:331,0
DA:332,0
DA:333,0
DA:334,0
DA:335,0
DA:336,0
DA:344,5
DA:345,5
DA:346,0
DA:347,0
DA:348,0
DA:349,0
DA:351,5
DA:361,1
DA:362,1
DA:363,1
DA:364,1
DA:365,1
DA:366,1
DA:367,1
DA:368,1
DA:369,0
DA:375,0
DA:376,0
DA:377,0
DA:378,0
DA:379,0
DA:380,0
DA:382,0
DA:383,0
DA:384,0
DA:385,0
DA:386,0
DA:387,0
DA:388,0
DA:389,0
DA:390,0
DA:391,0
DA:392,0
DA:393,0
DA:394,0
DA:395,0
DA:398,0
DA:400,0
DA:402,1
DA:415,3
DA:416,3
DA:422,3
DA:423,1
DA:424,1
DA:425,1
DA:426,1
DA:427,2
DA:429,2
DA:430,2
DA:431,2
DA:432,2
DA:433,2
DA:434,2
DA:435,2
DA:436,2
DA:437,2
DA:443,2
DA:444,2
DA:445,2
DA:446,2
DA:447,2
DA:448,2
DA:449,2
DA:450,2
DA:452,2
DA:454,2
DA:455,2
DA:456,2
DA:457,2
DA:465,2
DA:466,2
DA:467,2
DA:468,2
DA:469,2
DA:470,2
DA:471,2
DA:472,2
DA:473,2
DA:474,2
DA:475,2
DA:476,2
DA:477,2
DA:478,2
DA:479,2
DA:480,2
DA:481,2
DA:482,2
DA:485,2
DA:486,2
DA:487,3
DA:495,1
DA:496,1
DA:497,1
DA:498,1
DA:499,1
DA:500,1
DA:501,1
DA:502,1
DA:503,1
DA:504,1
DA:505,1
DA:506,1
DA:507,1
DA:508,1
DA:509,1
DA:510,1
DA:511,1
DA:512,0
DA:514,1
DA:515,1
DA:516,1
DA:517,1
DA:518,1
DA:519,1
DA:520,1
DA:521,1
DA:522,1
DA:523,1
DA:524,1
DA:525,1
DA:527,0
DA:529,1
DA:546,1
DA:547,1
DA:548,1
DA:549,1
DA:550,1
DA:551,1
DA:552,1
DA:553,1
DA:554,1
DA:555,1
DA:556,0
DA:557,0
DA:558,1
DA:559,0
DA:560,0
DA:561,0
DA:562,0
DA:563,1
DA:565,0
DA:568,0
DA:569,0
DA:570,0
DA:571,0
DA:572,0
DA:573,0
DA:574,0
DA:575,0
DA:578,1
DA:579,1
DA:580,1
DA:581,1
DA:582,1
DA:583,1
DA:586,1
DA:592,2
DA:593,2
DA:594,2
DA:595,2
DA:596,2
DA:597,2
DA:598,2
DA:599,2
DA:600,1
DA:601,2
DA:628,0
DA:633,0
DA:634,0
DA:635,0
DA:636,0
DA:643,4
DA:644,4
DA:645,4
DA:646,4
DA:647,4
DA:648,4
DA:649,4
DA:654,0
DA:655,0
DA:656,0
DA:657,0
DA:658,0
DA:660,0
DA:665,0
DA:666,0
DA:667,0
DA:668,0
DA:669,0
DA:671,0
DA:672,0
DA:681,4
DA:682,4
DA:683,4
DA:684,4
DA:685,4
DA:686,4
DA:687,4
DA:688,4
DA:694,4
DA:695,4
DA:696,4
DA:697,4
DA:698,4
DA:699,4
DA:700,4
DA:701,0
DA:702,4
DA:704,0
DA:705,4
DA:706,0
DA:707,0
DA:708,4
DA:709,4
DA:711,4
DA:712,4
DA:713,4
DA:714,4
DA:715,4
DA:716,4
DA:717,4
DA:718,4
DA:719,4
DA:727,1
DA:733,1
DA:734,1
DA:735,1
DA:736,1
DA:737,1
DA:738,1
DA:739,1
DA:744,1
DA:745,1
DA:746,1
DA:762,5
DA:763,5
DA:764,5
DA:765,5
DA:766,5
DA:767,5
DA:768,5
DA:769,5
DA:770,4
DA:772,4
DA:773,4
DA:774,4
DA:775,4
DA:776,4
DA:777,4
DA:778,4
DA:780,4
DA:781,4
DA:782,4
DA:783,4
DA:784,4
DA:795,4
DA:796,2
DA:797,2
DA:798,2
DA:799,2
DA:800,2
DA:801,2
DA:802,2
DA:803,2
DA:804,2
DA:805,2
DA:809,0
DA:810,2
DA:811,2
DA:813,4
DA:814,1
DA:815,3
DA:821,3
DA:822,3
DA:823,3
DA:824,3
DA:825,3
DA:826,3
DA:829,0
DA:832,3
DA:837,3
DA:838,3
DA:839,3
DA:840,3
DA:842,1
DA:843,3
DA:844,1
DA:845,1
DA:846,2
DA:847,2
DA:848,2
DA:849,0
DA:851,3
DA:852,0
DA:854,3
DA:855,5
DA:857,0
DA:858,0
DA:859,0
DA:864,23
DA:865,23
DA:866,23
DA:867,23
DA:868,25
DA:869,23
DA:870,23
DA:871,23
DA:872,23
DA:873,23
DA:874,23
DA:875,23
DA:878,0
DA:879,23
DA:880,23
DA:882,20
DA:883,20
DA:889,20
DA:890,3
DA:891,3
DA:892,3
DA:893,3
DA:894,3
DA:895,3
DA:896,3
DA:897,3
DA:898,3
DA:899,20
DA:903,3
DA:904,3
DA:905,3
DA:906,1
DA:907,1
DA:908,1
DA:909,1
DA:910,1
DA:911,1
DA:912,2
DA:913,0
DA:914,0
DA:915,2
DA:916,2
DA:917,2
DA:918,2
DA:919,2
DA:920,2
DA:921,2
DA:922,2
DA:923,2
DA:924,17
DA:926,17
DA:927,17
DA:934,17
DA:935,1
DA:936,1
DA:938,1
DA:939,1
DA:940,1
DA:941,1
DA:943,1
DA:944,1
DA:945,1
DA:946,1
DA:947,1
DA:948,1
DA:949,0
DA:950,16
DA:952,16
DA:953,16
DA:954,16
DA:955,16
DA:956,16
DA:957,16
DA:959,16
DA:960,16
DA:962,16
DA:964,16
DA:965,16
DA:966,16
DA:967,16
DA:970,16
DA:971,16
DA:972,16
DA:973,16
DA:974,16
DA:975,16
DA:976,16
DA:981,16
DA:982,16
DA:983,16
DA:984,16
DA:985,16
DA:986,16
DA:987,16
DA:988,16
DA:989,16
DA:990,16
DA:991,16
DA:992,16
DA:993,16
DA:994,16
DA:995,16
DA:996,16
DA:997,16
DA:998,16
DA:1000,16
DA:1001,16
DA:1002,16
DA:1003,16
DA:1004,16
DA:1005,20
DA:1016,2
DA:1017,2
DA:1018,2
DA:1019,2
DA:1020,2
DA:1021,2
DA:1022,2
DA:1023,2
DA:1024,2
DA:1025,2
DA:1026,2
DA:1027,2
DA:1028,2
DA:1029,2
DA:1030,2
DA:1031,1
DA:1032,1
DA:1033,1
DA:1034,1
DA:1035,2
DA:1037,2
DA:1042,2
DA:1043,2
DA:1044,2
DA:1045,2
DA:1046,0
DA:1047,3
DA:1048,2
DA:1049,2
DA:1050,2
DA:1051,2
DA:1052,2
DA:1053,2
DA:1059,1
DA:1060,1
DA:1061,1
DA:1062,1
DA:1063,1
DA:1064,1
DA:1065,1
DA:1067,2
DA:1068,2
DA:1069,1
DA:1070,1
DA:1071,1
DA:1072,1
DA:1073,1
DA:1074,2
DA:1076,5
DA:1077,6
DA:1078,5
DA:1080,5
DA:1081,5
DA:1082,5
DA:1084,20
DA:1085,20
DA:1086,20
DA:1087,20
DA:1088,20
DA:1089,20
DA:1091,10
DA:1092,10
DA:1093,10
DA:1094,2
DA:1095,2
DA:1096,2
DA:1097,2
DA:1098,2
DA:1099,2
DA:1102,9
DA:1103,9
DA:1104,9
DA:1110,7
DA:1111,7
DA:1112,7
DA:1118,0
DA:1119,0
DA:1120,0
DA:1126,0
DA:1127,0
DA:1128,0
DA:1130,7
DA:1131,7
DA:1132,7
DA:1133,7
DA:1134,7
DA:1135,7
DA:1137,2
DA:1138,2
DA:1139,2
DA:1140,2
DA:1141,2
DA:1142,2
DA:1149,7
DA:1150,7
DA:1151,7
DA:1152,7
DA:1153,7
DA:1154,5
DA:1155,5
DA:1156,7
DA:1178,4
DA:1179,4
DA:1180,4
DA:1181,4
DA:1182,4
DA:1183,4
DA:1184,1
DA:1185,3
DA:1191,4
DA:1192,3
DA:1194,0
DA:1195,0
DA:1196,0
DA:1197,0
DA:1198,0
DA:1199,4
DA:1201,4
DA:1202,4
DA:1203,4
DA:1204,4
DA:1206,4
DA:1208,4
DA:1209,4
DA:1210,4
DA:1211,4
DA:1212,4
DA:1214,4
DA:1215,4
DA:1216,4
DA:1217,4
DA:1218,4
DA:1219,4
DA:1220,4
DA:1227,0
DA:1231,0
DA:1236,0
DA:1237,0
DA:1238,0
DA:1239,0
DA:1251,4
DA:1252,4
DA:1253,4
DA:1254,4
DA:1255,4
DA:1256,4
DA:1257,4
DA:1262,4
DA:1263,4
DA:1264,4
DA:1265,0
DA:1267,4
DA:1268,4
DA:1269,4
DA:1270,4
DA:1271,0
DA:1273,4
DA:1274,4
DA:1275,4
DA:1276,4
DA:1277,4
DA:1278,4
DA:1279,4
DA:1280,4
DA:1281,4
DA:1317,4
DA:1318,4
DA:1319,2
DA:1320,2
DA:1322,4
DA:1326,2
DA:1327,2
DA:1328,2
DA:1348,15
DA:1349,15
DA:1353,15
DA:1354,15
DA:1355,15
DA:1356,15
DA:1361,7
DA:1362,7
DA:1363,7
DA:1374,3
DA:1375,3
DA:1376,3
DA:1381,3
DA:1382,3
DA:1383,3
DA:1384,3
DA:1389,1
DA:1390,1
DA:1391,1
DA:1392,1
DA:1393,1
DA:1394,1
DA:1395,1
DA:1396,1
DA:1397,1
DA:1398,1
DA:1404,1
DA:1405,1
DA:1406,1
DA:1407,1
DA:1408,1
DA:1414,4
DA:1415,4
DA:1416,4
DA:1417,4
DA:1418,4
DA:1419,4
DA:1420,4
DA:1421,4
DA:1423,4
DA:1424,4
DA:1425,4
DA:1426,4
DA:1427,4
DA:1428,4
DA:1429,4
DA:1430,4
DA:1431,4
DA:1432,4
DA:1433,4
DA:1434,4
DA:1435,4
DA:1437,4
DA:1438,4
DA:1439,4
DA:1440,4
DA:1448,1
DA:1451,1
DA:1452,1
DA:1453,1
DA:1454,1
DA:1455,1
DA:1457,0
DA:1463,1
DA:1464,1
DA:1465,1
DA:1468,1
DA:1469,1
DA:1470,1
DA:1471,1
DA:1472,1
DA:1473,1
DA:1493,0
DA:1500,0
DA:1501,0
DA:1502,0
DA:1503,0
DA:1504,0
DA:1505,0
DA:1506,0
DA:1507,0
DA:1508,0
DA:1509,0
DA:1510,0
DA:1512,0
DA:1514,0
DA:1515,0
DA:1516,0
DA:1517,0
DA:1518,0
DA:1520,0
DA:1523,0
DA:1524,0
DA:1525,0
DA:1526,0
DA:1527,0
DA:1528,0
DA:1543,0
DA:1544,0
DA:1545,0
DA:1546,0
DA:1547,0
DA:1548,0
DA:1549,0
DA:1550,0
DA:1553,0
DA:1554,0
DA:1555,0
DA:1559,0
DA:1560,0
DA:1561,0
DA:1562,0
DA:1563,0
DA:1564,0
DA:1578,0
DA:1579,0
DA:1580,0
DA:1581,0
DA:1582,0
DA:1583,0
DA:1584,0
DA:1585,0
DA:1586,0
DA:1587,0
DA:1588,0
DA:1589,0
DA:1591,0
DA:1596,0
DA:1597,0
DA:1598,0
DA:1600,0
DA:1601,0
DA:1602,0
DA:1603,0
DA:1604,0
DA:1605,0
DA:1606,0
DA:1613,0
DA:1614,0
DA:1615,0
DA:1616,0
DA:1617,0
DA:1618,0
DA:1619,0
DA:1620,0
DA:1621,0
DA:1622,0
DA:1623,0
DA:1624,0
DA:1625,0
DA:1627,0
DA:1628,0
DA:1630,0
DA:1639,0
DA:1640,0
DA:1641,0
DA:1642,0
DA:1643,0
DA:1644,0
DA:1645,0
DA:1646,0
DA:1647,0
DA:1648,0
DA:1649,0
DA:1654,0
DA:1655,0
DA:1656,0
DA:1657,0
DA:1658,0
DA:1659,0
DA:1661,0
DA:1662,0
DA:1665,0
DA:1676,1
DA:1677,1
DA:1678,1
DA:1679,1
DA:1683,1
DA:1684,1
DA:1685,1
DA:1688,1
BRF:0
BRH:0
LF:891
LH:627
end_of_record