SF:/home/ggtest/Work/Claude/MDViewer/.claude/worktrees/mdviewer-android/crates/mdviewer-core/src/anchor.rs
FN:76,_RNCNvNtCsiFtzeUpmjej_13mdviewer_core6anchor14resolve_anchor0B5_
FN:103,_RNCNvNtCsiFtzeUpmjej_13mdviewer_core6anchor14resolve_anchors0_0B5_
FN:95,_RNCNvNtCsiFtzeUpmjej_13mdviewer_core6anchor14resolve_anchors_0B5_
FN:185,_RNCNvNtCsiFtzeUpmjej_13mdviewer_core6anchor29resolve_anchor_with_threshold0B5_
FN:201,_RNvNtCsiFtzeUpmjej_13mdviewer_core6anchor10locate_end
FN:56,_RNvNtCsiFtzeUpmjej_13mdviewer_core6anchor14resolve_anchor
FN:233,_RNvNtCsiFtzeUpmjej_13mdviewer_core6anchor19matching_prefix_len
FN:218,_RNvNtCsiFtzeUpmjej_13mdviewer_core6anchor19matching_suffix_len
FN:244,_RNvNtCsiFtzeUpmjej_13mdviewer_core6anchor21is_char_boundary_pair
FN:121,_RNvNtCsiFtzeUpmjej_13mdviewer_core6anchor29resolve_anchor_with_threshold
FN:76,_RNCNvNtCsekErrGBc1MS_13mdviewer_core6anchor14resolve_anchor0B5_
FN:103,_RNCNvNtCsekErrGBc1MS_13mdviewer_core6anchor14resolve_anchors0_0B5_
FN:95,_RNCNvNtCsekErrGBc1MS_13mdviewer_core6anchor14resolve_anchors_0B5_
FN:185,_RNCNvNtCsekErrGBc1MS_13mdviewer_core6anchor29resolve_anchor_with_threshold0B5_
FN:201,_RNvNtCsekErrGBc1MS_13mdviewer_core6anchor10locate_end
FN:56,_RNvNtCsekErrGBc1MS_13mdviewer_core6anchor14resolve_anchor
FN:233,_RNvNtCsekErrGBc1MS_13mdviewer_core6anchor19matching_prefix_len
FN:218,_RNvNtCsekErrGBc1MS_13mdviewer_core6anchor19matching_suffix_len
FN:244,_RNvNtCsekErrGBc1MS_13mdviewer_core6anchor21is_char_boundary_pair
FN:121,_RNvNtCsekErrGBc1MS_13mdviewer_core6anchor29resolve_anchor_with_threshold
FN:76,_RNCNvNtCslUjpkFttpVg_13mdviewer_core6anchor14resolve_anchor0B5_
FN:103,_RNCNvNtCslUjpkFttpVg_13mdviewer_core6anchor14resolve_anchors0_0B5_
FN:95,_RNCNvNtCslUjpkFttpVg_13mdviewer_core6anchor14resolve_anchors_0B5_
FN:185,_RNCNvNtCslUjpkFttpVg_13mdviewer_core6anchor29resolve_anchor_with_threshold0B5_
FN:201,_RNvNtCslUjpkFttpVg_13mdviewer_core6anchor10locate_end
FN:56,_RNvNtCslUjpkFttpVg_13mdviewer_core6anchor14resolve_anchor
FN:233,_RNvNtCslUjpkFttpVg_13mdviewer_core6anchor19matching_prefix_len
FN:218,_RNvNtCslUjpkFttpVg_13mdviewer_core6anchor19matching_suffix_len
FN:244,_RNvNtCslUjpkFttpVg_13mdviewer_core6anchor21is_char_boundary_pair
FN:121,_RNvNtCslUjpkFttpVg_13mdviewer_core6anchor29resolve_anchor_with_threshold
FNDA:0,_RNCNvNtCsiFtzeUpmjej_13mdviewer_core6anchor14resolve_anchor0B5_
FNDA:0,_RNCNvNtCsiFtzeUpmjej_13mdviewer_core6anchor14resolve_anchors0_0B5_
FNDA:0,_RNCNvNtCsiFtzeUpmjej_13mdviewer_core6anchor14resolve_anchors_0B5_
FNDA:0,_RNCNvNtCsiFtzeUpmjej_13mdviewer_core6anchor29resolve_anchor_with_threshold0B5_
FNDA:0,_RNvNtCsiFtzeUpmjej_13mdviewer_core6anchor10locate_end
FNDA:0,_RNvNtCsiFtzeUpmjej_13mdviewer_core6anchor14resolve_anchor
FNDA:0,_RNvNtCsiFtzeUpmjej_13mdviewer_core6anchor19matching_prefix_len
FNDA:0,_RNvNtCsiFtzeUpmjej_13mdviewer_core6anchor19matching_suffix_len
FNDA:0,_RNvNtCsiFtzeUpmjej_13mdviewer_core6anchor21is_char_boundary_pair
FNDA:0,_RNvNtCsiFtzeUpmjej_13mdviewer_core6anchor29resolve_anchor_with_threshold
FNDA:1,_RNCNvNtCsekErrGBc1MS_13mdviewer_core6anchor14resolve_anchor0B5_
FNDA:0,_RNCNvNtCsekErrGBc1MS_13mdviewer_core6anchor14resolve_anchors0_0B5_
FNDA:0,_RNCNvNtCsekErrGBc1MS_13mdviewer_core6anchor14resolve_anchors_0B5_
FNDA:0,_RNCNvNtCsekErrGBc1MS_13mdviewer_core6anchor29resolve_anchor_with_threshold0B5_
FNDA:0,_RNvNtCsekErrGBc1MS_13mdviewer_core6anchor10locate_end
FNDA:1,_RNvNtCsekErrGBc1MS_13mdviewer_core6anchor14resolve_anchor
FNDA:0,_RNvNtCsekErrGBc1MS_13mdviewer_core6anchor19matching_prefix_len
FNDA:0,_RNvNtCsekErrGBc1MS_13mdviewer_core6anchor19matching_suffix_len
FNDA:1,_RNvNtCsekErrGBc1MS_13mdviewer_core6anchor21is_char_boundary_pair
FNDA:0,_RNvNtCsekErrGBc1MS_13mdviewer_core6anchor29resolve_anchor_with_threshold
FNDA:0,_RNCNvNtCslUjpkFttpVg_13mdviewer_core6anchor14resolve_anchor0B5_
FNDA:0,_RNCNvNtCslUjpkFttpVg_13mdviewer_core6anchor14resolve_anchors0_0B5_
FNDA:0,_RNCNvNtCslUjpkFttpVg_13mdviewer_core6anchor14resolve_anchors_0B5_
FNDA:0,_RNCNvNtCslUjpkFttpVg_13mdviewer_core6anchor29resolve_anchor_with_threshold0B5_
FNDA:0,_RNvNtCslUjpkFttpVg_13mdviewer_core6anchor10locate_end
FNDA:0,_RNvNtCslUjpkFttpVg_13mdviewer_core6anchor14resolve_anchor
FNDA:0,_RNvNtCslUjpkFttpVg_13mdviewer_core6anchor19matching_prefix_len
FNDA:0,_RNvNtCslUjpkFttpVg_13mdviewer_core6anchor19matching_suffix_len
FNDA:0,_RNvNtCslUjpkFttpVg_13mdviewer_core6anchor21is_char_boundary_pair
FNDA:0,_RNvNtCslUjpkFttpVg_13mdviewer_core6anchor29resolve_anchor_with_threshold
FNF:10
FNH:3
DA:56,1
DA:57,1
DA:58,0
DA:59,1
DA:62,1
DA:63,1
DA:64,2
DA:65,1
DA:66,1
DA:67,1
DA:73,1
DA:74,1
DA:75,1
DA:76,1
DA:77,1
DA:78,1
DA:80,1
DA:81,0
DA:82,1
DA:85,1
DA:86,1
DA:87,1
DA:88,0
DA:89,1
DA:90,1
DA:91,0
DA:95,0
DA:96,0
DA:97,0
DA:98,0
DA:99,0
DA:100,0
DA:101,0
DA:103,0
DA:104,0
DA:105,0
DA:106,0
DA:107,0
DA:108,0
DA:109,0
DA:110,1
DA:121,0
DA:122,0
DA:123,0
DA:124,0
DA:125,0
DA:126,0
DA:127,0
DA:128,0
DA:132,0
DA:133,0
DA:134,0
DA:137,0
DA:139,0
DA:140,0
DA:141,0
DA:146,0
DA:150,0
DA:151,0
DA:152,0
DA:157,0
DA:158,0
DA:159,0
DA:167,0
DA:168,0
DA:172,0
DA:173,0
DA:174,0
DA:178,0
DA:179,0
DA:180,0
DA:183,0
DA:184,0
DA:185,0
DA:186,0
DA:187,0
DA:188,0
DA:189,0
DA:191,0
DA:192,0
DA:201,0
DA:202,0
DA:203,0
DA:204,0
DA:206,0
DA:207,0
DA:208,0
DA:209,0
DA:210,0
DA:211,0
DA:212,0
DA:213,0
DA:214,0
DA:215,0
DA:216,0
DA:218,0
DA:220,0
DA:221,0
DA:222,0
DA:223,0
DA:224,0
DA:226,0
DA:227,0
DA:228,0
DA:230,0
DA:231,0
DA:233,0
DA:234,0
DA:235,0
DA:236,0
DA:237,0
DA:238,0
DA:239,0
DA:241,0
DA:242,0
DA:244,1
DA:245,1
DA:246,1
BRF:0
BRH:0
LF:122
LH:27
end_of_record
SF:/home/ggtest/Work/Claude/MDViewer/.claude/worktrees/mdviewer-android/crates/mdviewer-core/src/auto_merge.rs
FN:52,_RNvNtNtCslUjpkFttpVg_13mdviewer_core10auto_merge5testss_28round_trip_preserves_variant
FN:35,_RNvNtNtCslUjpkFttpVg_13mdviewer_core10auto_merge5testss_32variants_serialize_as_snake_case
FN:42,_RNvNtNtCslUjpkFttpVg_13mdviewer_core10auto_merge5testss_36variants_deserialize_from_snake_case
FNDA:1,_RNvNtNtCslUjpkFttpVg_13mdviewer_core10auto_merge5testss_28round_trip_preserves_variant
FNDA:1,_RNvNtNtCslUjpkFttpVg_13mdviewer_core10auto_merge5testss_32variants_serialize_as_snake_case
FNDA:1,_RNvNtNtCslUjpkFttpVg_13mdviewer_core10auto_merge5testss_36variants_deserialize_from_snake_case
FNF:3
FNH:3
DA:35,1
DA:36,1
DA:37,1
DA:38,1
DA:39,1
DA:42,1
DA:43,1
DA:44,1
DA:45,1
DA:46,1
DA:47,1
DA:48,1
DA:49,1
DA:52,1
DA:53,3
DA:54,1
DA:55,1
DA:56,1
DA:57,1
DA:58,3
DA:59,3
DA:60,3
DA:62,1
BRF:0
BRH:0
LF:23
LH:23
end_of_record
SF:/home/ggtest/Work/Claude/MDViewer/.claude/worktrees/mdviewer-android/crates/mdviewer-core/src/comments.rs
FN:152,_RNvMs_NtCsiFtzeUpmjej_13mdviewer_core8commentsNtB4_13CommentsStore10get_thread
FN:182,_RNvMs_NtCsiFtzeUpmjej_13mdviewer_core8commentsNtB4_13CommentsStore10post_reply
FN:223,_RNvMs_NtCsiFtzeUpmjej_13mdviewer_core8commentsNtB4_13CommentsStore11replace_all
FN:128,_RNvMs_NtCsiFtzeUpmjej_13mdviewer_core8commentsNtB4_13CommentsStore12from_threads
FN:148,_RNvMs_NtCsiFtzeUpmjej_13mdviewer_core8commentsNtB4_13CommentsStore12list_threads
FN:159,_RNvMs_NtCsiFtzeUpmjej_13mdviewer_core8commentsNtB4_13CommentsStore13create_thread
FN:204,_RNvMs_NtCsiFtzeUpmjej_13mdviewer_core8commentsNtB4_13CommentsStore14resolve_thread
FN:120,_RNvMs_NtCsiFtzeUpmjej_13mdviewer_core8commentsNtB4_13CommentsStore3new
FN:143,_RNvMs_NtCsiFtzeUpmjej_13mdviewer_core8commentsNtB4_13CommentsStore4emit
FN:137,_RNvMs_NtCsiFtzeUpmjej_13mdviewer_core8commentsNtB4_13CommentsStore9subscribe
FN:229,_RNvNtCsiFtzeUpmjej_13mdviewer_core8comments11now_rfc3339
FN:354,_RNvNtCsiFtzeUpmjej_13mdviewer_core8comments12merge_stores
FN:392,_RNvNtCsiFtzeUpmjej_13mdviewer_core8comments12union_thread
FN:252,_RNvNtCsiFtzeUpmjej_13mdviewer_core8comments15civil_from_days
FN:372,_RNvNtCsiFtzeUpmjej_13mdviewer_core8comments16post_merge_union
FN:303,_RNvNtCsiFtzeUpmjej_13mdviewer_core8comments18store_to_automerge
FN:316,_RNvNtCsiFtzeUpmjej_13mdviewer_core8comments20store_from_automerge
FN:271,_RNvNtCsiFtzeUpmjej_13mdviewer_core8comments6new_id
FN:355,_RNvNvNtCsiFtzeUpmjej_13mdviewer_core8comments12merge_stores9try_merge
FN:114,_RNvXNtCsiFtzeUpmjej_13mdviewer_core8commentsNtB2_13CommentsStoreNtNtCsgEmfK2I1SDS_4core7default7Default7default
FN:378,_RNCNCNvNtCsiFtzeUpmjej_13mdviewer_core8comments16post_merge_union00B7_
FN:153,_RNCNvMs_NtCsiFtzeUpmjej_13mdviewer_core8commentsNtB6_13CommentsStore10get_thread0B8_
FN:190,_RNCNvMs_NtCsiFtzeUpmjej_13mdviewer_core8commentsNtB6_13CommentsStore10post_reply0B8_
FN:212,_RNCNvMs_NtCsiFtzeUpmjej_13mdviewer_core8commentsNtB6_13CommentsStore14resolve_thread0B8_
FN:145,_RNCNvMs_NtCsiFtzeUpmjej_13mdviewer_core8commentsNtB6_13CommentsStore4emit0B8_
FN:365,_RNCNvNtCsiFtzeUpmjej_13mdviewer_core8comments12merge_stores0B5_
FN:403,_RNCNvNtCsiFtzeUpmjej_13mdviewer_core8comments12union_thread0B5_
FN:377,_RNCNvNtCsiFtzeUpmjej_13mdviewer_core8comments16post_merge_union0B5_
FN:308,_RNCNvNtCsiFtzeUpmjej_13mdviewer_core8comments18store_to_automerge0B5_
FN:322,_RNCNvNtCsiFtzeUpmjej_13mdviewer_core8comments20store_from_automerge0B5_
FN:326,_RNCNvNtCsiFtzeUpmjej_13mdviewer_core8comments20store_from_automerges_0B5_
FN:378,_RNCNCNvNtCsekErrGBc1MS_13mdviewer_core8comments16post_merge_union00B7_
FN:153,_RNCNvMs_NtCsekErrGBc1MS_13mdviewer_core8commentsNtB6_13CommentsStore10get_thread0B8_
FN:190,_RNCNvMs_NtCsekErrGBc1MS_13mdviewer_core8commentsNtB6_13CommentsStore10post_reply0B8_
FN:212,_RNCNvMs_NtCsekErrGBc1MS_13mdviewer_core8commentsNtB6_13CommentsStore14resolve_thread0B8_
FN:145,_RNCNvMs_NtCsekErrGBc1MS_13mdviewer_core8commentsNtB6_13CommentsStore4emit0B8_
FN:365,_RNCNvNtCsekErrGBc1MS_13mdviewer_core8comments12merge_stores0B5_
FN:403,_RNCNvNtCsekErrGBc1MS_13mdviewer_core8comments12union_thread0B5_
FN:377,_RNCNvNtCsekErrGBc1MS_13mdviewer_core8comments16post_merge_union0B5_
FN:308,_RNCNvNtCsekErrGBc1MS_13mdviewer_core8comments18store_to_automerge0B5_
FN:322,_RNCNvNtCsekErrGBc1MS_13mdviewer_core8comments20store_from_automerge0B5_
FN:326,_RNCNvNtCsekErrGBc1MS_13mdviewer_core8comments20store_from_automerges_0B5_
FN:152,_RNvMs_NtCsekErrGBc1MS_13mdviewer_core8commentsNtB4_13CommentsStore10get_thread
FN:182,_RNvMs_NtCsekErrGBc1MS_13mdviewer_core8commentsNtB4_13CommentsStore10post_reply
FN:223,_RNvMs_NtCsekErrGBc1MS_13mdviewer_core8commentsNtB4_13CommentsStore11replace_all
FN:128,_RNvMs_NtCsekErrGBc1MS_13mdviewer_core8commentsNtB4_13CommentsStore12from_threads
FN:148,_RNvMs_NtCsekErrGBc1MS_13mdviewer_core8commentsNtB4_13CommentsStore12list_threads
FN:159,_RNvMs_NtCsekErrGBc1MS_13mdviewer_core8commentsNtB4_13CommentsStore13create_thread
FN:204,_RNvMs_NtCsekErrGBc1MS_13mdviewer_core8commentsNtB4_13CommentsStore14resolve_thread
FN:120,_RNvMs_NtCsekErrGBc1MS_13mdviewer_core8commentsNtB4_13CommentsStore3new
FN:143,_RNvMs_NtCsekErrGBc1MS_13mdviewer_core8commentsNtB4_13CommentsStore4emit
FN:137,_RNvMs_NtCsekErrGBc1MS_13mdviewer_core8commentsNtB4_13CommentsStore9subscribe
FN:229,_RNvNtCsekErrGBc1MS_13mdviewer_core8comments11now_rfc3339
FN:354,_RNvNtCsekErrGBc1MS_13mdviewer_core8comments12merge_stores
FN:392,_RNvNtCsekErrGBc1MS_13mdviewer_core8comments12union_thread
FN:252,_RNvNtCsekErrGBc1MS_13mdviewer_core8comments15civil_from_days
FN:372,_RNvNtCsekErrGBc1MS_13mdviewer_core8comments16post_merge_union
FN:303,_RNvNtCsekErrGBc1MS_13mdviewer_core8comments18store_to_automerge
FN:316,_RNvNtCsekErrGBc1MS_13mdviewer_core8comments20store_from_automerge
FN:271,_RNvNtCsekErrGBc1MS_13mdviewer_core8comments6new_id
FN:355,_RNvNvNtCsekErrGBc1MS_13mdviewer_core8comments12merge_stores9try_merge
FN:114,_RNvXNtCsekErrGBc1MS_13mdviewer_core8commentsNtB2_13CommentsStoreNtNtCsgEmfK2I1SDS_4core7default7Default7default
FN:308,_RNCNvNtCslUjpkFttpVg_13mdviewer_core8comments18store_to_automerge0B5_
FN:322,_RNCNvNtCslUjpkFttpVg_13mdviewer_core8comments20store_from_automerge0B5_
FN:326,_RNCNvNtCslUjpkFttpVg_13mdviewer_core8comments20store_from_automerges_0B5_
FN:128,_RNvMs_NtCslUjpkFttpVg_13mdviewer_core8commentsNtB4_13CommentsStore12from_threads
FN:148,_RNvMs_NtCslUjpkFttpVg_13mdviewer_core8commentsNtB4_13CommentsStore12list_threads
FN:120,_RNvMs_NtCslUjpkFttpVg_13mdviewer_core8commentsNtB4_13CommentsStore3new
FN:303,_RNvNtCslUjpkFttpVg_13mdviewer_core8comments18store_to_automerge
FN:316,_RNvNtCslUjpkFttpVg_13mdviewer_core8comments20store_from_automerge
FN:378,_RNCNCNvNtCslUjpkFttpVg_13mdviewer_core8comments16post_merge_union00B7_
FN:153,_RNCNvMs_NtCslUjpkFttpVg_13mdviewer_core8commentsNtB6_13CommentsStore10get_thread0B8_
FN:190,_RNCNvMs_NtCslUjpkFttpVg_13mdviewer_core8commentsNtB6_13CommentsStore10post_reply0B8_
FN:212,_RNCNvMs_NtCslUjpkFttpVg_13mdviewer_core8commentsNtB6_13CommentsStore14resolve_thread0B8_
FN:145,_RNCNvMs_NtCslUjpkFttpVg_13mdviewer_core8commentsNtB6_13CommentsStore4emit0B8_
FN:365,_RNCNvNtCslUjpkFttpVg_13mdviewer_core8comments12merge_stores0B5_
FN:403,_RNCNvNtCslUjpkFttpVg_13mdviewer_core8comments12union_thread0B5_
FN:377,_RNCNvNtCslUjpkFttpVg_13mdviewer_core8comments16post_merge_union0B5_
FN:152,_RNvMs_NtCslUjpkFttpVg_13mdviewer_core8commentsNtB4_13CommentsStore10get_thread
FN:182,_RNvMs_NtCslUjpkFttpVg_13mdviewer_core8commentsNtB4_13CommentsStore10post_reply
FN:223,_RNvMs_NtCslUjpkFttpVg_13mdviewer_core8commentsNtB4_13CommentsStore11replace_all
FN:159,_RNvMs_NtCslUjpkFttpVg_13mdviewer_core8commentsNtB4_13CommentsStore13create_thread
FN:204,_RNvMs_NtCslUjpkFttpVg_13mdviewer_core8commentsNtB4_13CommentsStore14resolve_thread
FN:143,_RNvMs_NtCslUjpkFttpVg_13mdviewer_core8commentsNtB4_13CommentsStore4emit
FN:137,_RNvMs_NtCslUjpkFttpVg_13mdviewer_core8commentsNtB4_13CommentsStore9subscribe
FN:229,_RNvNtCslUjpkFttpVg_13mdviewer_core8comments11now_rfc3339
FN:354,_RNvNtCslUjpkFttpVg_13mdviewer_core8comments12merge_stores
FN:392,_RNvNtCslUjpkFttpVg_13mdviewer_core8comments12union_thread
FN:252,_RNvNtCslUjpkFttpVg_13mdviewer_core8comments15civil_from_days
FN:372,_RNvNtCslUjpkFttpVg_13mdviewer_core8comments16post_merge_union
FN:271,_RNvNtCslUjpkFttpVg_13mdviewer_core8comments6new_id
FN:355,_RNvNvNtCslUjpkFttpVg_13mdviewer_core8comments12merge_stores9try_merge
FN:114,_RNvXNtCslUjpkFttpVg_13mdviewer_core8commentsNtB2_13CommentsStoreNtNtCsgEmfK2I1SDS_4core7default7Default7default
FNDA:0,_RNvMs_NtCsiFtzeUpmjej_13mdviewer_core8commentsNtB4_13CommentsStore10get_thread
FNDA:0,_RNvMs_NtCsiFtzeUpmjej_13mdviewer_core8commentsNtB4_13CommentsStore10post_reply
FNDA:0,_RNvMs_NtCsiFtzeUpmjej_13mdviewer_core8commentsNtB4_13CommentsStore11replace_all
FNDA:0,_RNvMs_NtCsiFtzeUpmjej_13mdviewer_core8commentsNtB4_13CommentsStore12from_threads
FNDA:0,_RNvMs_NtCsiFtzeUpmjej_13mdviewer_core8commentsNtB4_13CommentsStore12list_threads
FNDA:0,_RNvMs_NtCsiFtzeUpmjej_13mdviewer_core8commentsNtB4_13CommentsStore13create_thread
FNDA:0,_RNvMs_NtCsiFtzeUpmjej_13mdviewer_core8commentsNtB4_13CommentsStore14resolve_thread
FNDA:0,_RNvMs_NtCsiFtzeUpmjej_13mdviewer_core8commentsNtB4_13CommentsStore3new
FNDA:0,_RNvMs_NtCsiFtzeUpmjej_13mdviewer_core8commentsNtB4_13CommentsStore4emit
FNDA:0,_RNvMs_NtCsiFtzeUpmjej_13mdviewer_core8commentsNtB4_13CommentsStore9subscribe
FNDA:0,_RNvNtCsiFtzeUpmjej_13mdviewer_core8comments11now_rfc3339
FNDA:0,_RNvNtCsiFtzeUpmjej_13mdviewer_core8comments12merge_stores
FNDA:0,_RNvNtCsiFtzeUpmjej_13mdviewer_core8comments12union_thread
FNDA:0,_RNvNtCsiFtzeUpmjej_13mdviewer_core8comments15civil_from_days
FNDA:0,_RNvNtCsiFtzeUpmjej_13mdviewer_core8comments16post_merge_union
FNDA:0,_RNvNtCsiFtzeUpmjej_13mdviewer_core8comments18store_to_automerge
FNDA:0,_RNvNtCsiFtzeUpmjej_13mdviewer_core8comments20store_from_automerge
FNDA:0,_RNvNtCsiFtzeUpmjej_13mdviewer_core8comments6new_id
FNDA:0,_RNvNvNtCsiFtzeUpmjej_13mdviewer_core8comments12merge_stores9try_merge
FNDA:0,_RNvXNtCsiFtzeUpmjej_13mdviewer_core8commentsNtB2_13CommentsStoreNtNtCsgEmfK2I1SDS_4core7default7Default7default
FNDA:0,_RNCNCNvNtCsiFtzeUpmjej_13mdviewer_core8comments16post_merge_union00B7_
FNDA:0,_RNCNvMs_NtCsiFtzeUpmjej_13mdviewer_core8commentsNtB6_13CommentsStore10get_thread0B8_
FNDA:0,_RNCNvMs_NtCsiFtzeUpmjej_13mdviewer_core8commentsNtB6_13CommentsStore10post_reply0B8_
FNDA:0,_RNCNvMs_NtCsiFtzeUpmjej_13mdviewer_core8commentsNtB6_13CommentsStore14resolve_thread0B8_
FNDA:0,_RNCNvMs_NtCsiFtzeUpmjej_13mdviewer_core8commentsNtB6_13CommentsStore4emit0B8_
FNDA:0,_RNCNvNtCsiFtzeUpmjej_13mdviewer_core8comments12merge_stores0B5_
FNDA:0,_RNCNvNtCsiFtzeUpmjej_13mdviewer_core8comments12union_thread0B5_
FNDA:0,_RNCNvNtCsiFtzeUpmjej_13mdviewer_core8comments16post_merge_union0B5_
FNDA:0,_RNCNvNtCsiFtzeUpmjej_13mdviewer_core8comments18store_to_automerge0B5_
FNDA:0,_RNCNvNtCsiFtzeUpmjej_13mdviewer_core8comments20store_from_automerge0B5_
FNDA:0,_RNCNvNtCsiFtzeUpmjej_13mdviewer_core8comments20store_from_automerges_0B5_
FNDA:4,_RNCNCNvNtCsekErrGBc1MS_13mdviewer_core8comments16post_merge_union00B7_
FNDA:0,_RNCNvMs_NtCsekErrGBc1MS_13mdviewer_core8commentsNtB6_13CommentsStore10get_thread0B8_
FNDA:0,_RNCNvMs_NtCsekErrGBc1MS_13mdviewer_core8commentsNtB6_13CommentsStore10post_reply0B8_
FNDA:0,_RNCNvMs_NtCsekErrGBc1MS_13mdviewer_core8commentsNtB6_13CommentsStore14resolve_thread0B8_
FNDA:0,_RNCNvMs_NtCsekErrGBc1MS_13mdviewer_core8commentsNtB6_13CommentsStore4emit0B8_
FNDA:0,_RNCNvNtCsekErrGBc1MS_13mdviewer_core8comments12merge_stores0B5_
FNDA:0,_RNCNvNtCsekErrGBc1MS_13mdviewer_core8comments12union_thread0B5_
FNDA:4,_RNCNvNtCsekErrGBc1MS_13mdviewer_core8comments16post_merge_union0B5_
FNDA:0,_RNCNvNtCsekErrGBc1MS_13mdviewer_core8comments18store_to_automerge0B5_
FNDA:0,_RNCNvNtCsekErrGBc1MS_13mdviewer_core8comments20store_from_automerge0B5_
FNDA:0,_RNCNvNtCsekErrGBc1MS_13mdviewer_core8comments20store_from_automerges_0B5_
FNDA:0,_RNvMs_NtCsekErrGBc1MS_13mdviewer_core8commentsNtB4_13CommentsStore10get_thread
FNDA:0,_RNvMs_NtCsekErrGBc1MS_13mdviewer_core8commentsNtB4_13CommentsStore10post_reply
FNDA:0,_RNvMs_NtCsekErrGBc1MS_13mdviewer_core8commentsNtB4_13CommentsStore11replace_all
FNDA:5,_RNvMs_NtCsekErrGBc1MS_13mdviewer_core8commentsNtB4_13CommentsStore12from_threads
FNDA:25,_RNvMs_NtCsekErrGBc1MS_13mdviewer_core8commentsNtB4_13CommentsStore12list_threads
FNDA:5,_RNvMs_NtCsekErrGBc1MS_13mdviewer_core8commentsNtB4_13CommentsStore13create_thread
FNDA:0,_RNvMs_NtCsekErrGBc1MS_13mdviewer_core8commentsNtB4_13CommentsStore14resolve_thread
FNDA:9,_RNvMs_NtCsekErrGBc1MS_13mdviewer_core8commentsNtB4_13CommentsStore3new
FNDA:5,_RNvMs_NtCsekErrGBc1MS_13mdviewer_core8commentsNtB4_13CommentsStore4emit
FNDA:0,_RNvMs_NtCsekErrGBc1MS_13mdviewer_core8commentsNtB4_13CommentsStore9subscribe
FNDA:5,_RNvNtCsekErrGBc1MS_13mdviewer_core8comments11now_rfc3339
FNDA:1,_RNvNtCsekErrGBc1MS_13mdviewer_core8comments12merge_stores
FNDA:0,_RNvNtCsekErrGBc1MS_13mdviewer_core8comments12union_thread
FNDA:5,_RNvNtCsekErrGBc1MS_13mdviewer_core8comments15civil_from_days
FNDA:1,_RNvNtCsekErrGBc1MS_13mdviewer_core8comments16post_merge_union
FNDA:4,_RNvNtCsekErrGBc1MS_13mdviewer_core8comments18store_to_automerge
FNDA:3,_RNvNtCsekErrGBc1MS_13mdviewer_core8comments20store_from_automerge
FNDA:10,_RNvNtCsekErrGBc1MS_13mdviewer_core8comments6new_id
FNDA:1,_RNvNvNtCsekErrGBc1MS_13mdviewer_core8comments12merge_stores9try_merge
FNDA:0,_RNvXNtCsekErrGBc1MS_13mdviewer_core8commentsNtB2_13CommentsStoreNtNtCsgEmfK2I1SDS_4core7default7Default7default
FNDA:0,_RNCNvNtCslUjpkFttpVg_13mdviewer_core8comments18store_to_automerge0B5_
FNDA:0,_RNCNvNtCslUjpkFttpVg_13mdviewer_core8comments20store_from_automerge0B5_
FNDA:0,_RNCNvNtCslUjpkFttpVg_13mdviewer_core8comments20store_from_automerges_0B5_
FNDA:1,_RNvMs_NtCslUjpkFttpVg_13mdviewer_core8commentsNtB4_13CommentsStore12from_threads
FNDA:4,_RNvMs_NtCslUjpkFttpVg_13mdviewer_core8commentsNtB4_13CommentsStore12list_threads
FNDA:1,_RNvMs_NtCslUjpkFttpVg_13mdviewer_core8commentsNtB4_13CommentsStore3new
FNDA:1,_RNvNtCslUjpkFttpVg_13mdviewer_core8comments18store_to_automerge
FNDA:1,_RNvNtCslUjpkFttpVg_13mdviewer_core8comments20store_from_automerge
FNDA:0,_RNCNCNvNtCslUjpkFttpVg_13mdviewer_core8comments16post_merge_union00B7_
FNDA:0,_RNCNvMs_NtCslUjpkFttpVg_13mdviewer_core8commentsNtB6_13CommentsStore10get_thread0B8_
FNDA:0,_RNCNvMs_NtCslUjpkFttpVg_13mdviewer_core8commentsNtB6_13CommentsStore10post_reply0B8_
FNDA:0,_RNCNvMs_NtCslUjpkFttpVg_13mdviewer_core8commentsNtB6_13CommentsStore14resolve_thread0B8_
FNDA:0,_RNCNvMs_NtCslUjpkFttpVg_13mdviewer_core8commentsNtB6_13CommentsStore4emit0B8_
FNDA:0,_RNCNvNtCslUjpkFttpVg_13mdviewer_core8comments12merge_stores0B5_
FNDA:0,_RNCNvNtCslUjpkFttpVg_13mdviewer_core8comments12union_thread0B5_
FNDA:0,_RNCNvNtCslUjpkFttpVg_13mdviewer_core8comments16post_merge_union0B5_
FNDA:0,_RNvMs_NtCslUjpkFttpVg_13mdviewer_core8commentsNtB4_13CommentsStore10get_thread
FNDA:0,_RNvMs_NtCslUjpkFttpVg_13mdviewer_core8commentsNtB4_13CommentsStore10post_reply
FNDA:0,_RNvMs_NtCslUjpkFttpVg_13mdviewer_core8commentsNtB4_13CommentsStore11replace_all
FNDA:0,_RNvMs_NtCslUjpkFttpVg_13mdviewer_core8commentsNtB4_13CommentsStore13create_thread
FNDA:0,_RNvMs_NtCslUjpkFttpVg_13mdviewer_core8commentsNtB4_13CommentsStore14resolve_thread
FNDA:0,_RNvMs_NtCslUjpkFttpVg_13mdviewer_core8commentsNtB4_13CommentsStore4emit
FNDA:0,_RNvMs_NtCslUjpkFttpVg_13mdviewer_core8commentsNtB4_13CommentsStore9subscribe
FNDA:0,_RNvNtCslUjpkFttpVg_13mdviewer_core8comments11now_rfc3339
FNDA:0,_RNvNtCslUjpkFttpVg_13mdviewer_core8comments12merge_stores
FNDA:0,_RNvNtCslUjpkFttpVg_13mdviewer_core8comments12union_thread
FNDA:0,_RNvNtCslUjpkFttpVg_13mdviewer_core8comments15civil_from_days
FNDA:0,_RNvNtCslUjpkFttpVg_13mdviewer_core8comments16post_merge_union
FNDA:0,_RNvNtCslUjpkFttpVg_13mdviewer_core8comments6new_id
FNDA:0,_RNvNvNtCslUjpkFttpVg_13mdviewer_core8comments12merge_stores9try_merge
FNDA:0,_RNvXNtCslUjpkFttpVg_13mdviewer_core8commentsNtB2_13CommentsStoreNtNtCsgEmfK2I1SDS_4core7default7Default7default
FNF:31
FNH:15
DA:114,0
DA:115,0
DA:116,0
DA:120,10
DA:121,10
DA:122,10
DA:123,10
DA:124,10
DA:125,10
DA:128,6
DA:129,6
DA:130,6
DA:131,6
DA:132,6
DA:133,6
DA:137,0
DA:138,0
DA:139,0
DA:140,0
DA:141,0
DA:143,5
DA:144,5
DA:145,5
DA:146,5
DA:148,29
DA:149,29
DA:150,29
DA:152,0
DA:153,0
DA:154,0
DA:159,5
DA:160,5
DA:161,5
DA:162,5
DA:163,5
DA:164,5
DA:165,5
DA:166,5
DA:167,5
DA:168,5
DA:169,5
DA:170,5
DA:171,5
DA:172,5
DA:173,5
DA:174,5
DA:175,5
DA:176,5
DA:177,5
DA:178,5
DA:179,5
DA:180,5
DA:182,0
DA:183,0
DA:184,0
DA:185,0
DA:186,0
DA:187,0
DA:188,0
DA:189,0
DA:190,0
DA:191,0
DA:192,0
DA:193,0
DA:194,0
DA:195,0
DA:196,0
DA:197,0
DA:198,0
DA:199,0
DA:200,0
DA:201,0
DA:202,0
DA:204,0
DA:205,0
DA:206,0
DA:207,0
DA:208,0
DA:209,0
DA:210,0
DA:211,0
DA:212,0
DA:213,0
DA:214,0
DA:215,0
DA:216,0
DA:217,0
DA:218,0
DA:219,0
DA:223,0
DA:224,0
DA:225,0
DA:226,0
DA:229,5
DA:231,5
DA:232,5
DA:233,5
DA:234,5
DA:238,5
DA:239,5
DA:240,5
DA:241,5
DA:242,5
DA:243,5
DA:244,5
DA:247,5
DA:252,5
DA:253,5
DA:254,5
DA:255,5
DA:256,5
DA:257,5
DA:258,5
DA:259,5
DA:260,5
DA:261,5
DA:262,5
DA:263,5
DA:264,5
DA:271,10
DA:274,10
DA:275,10
DA:276,10
DA:277,10
DA:278,10
DA:279,10
DA:280,10
DA:303,5
DA:304,5
DA:305,5
DA:306,4
DA:307,4
DA:308,4
DA:310,5
DA:311,5
DA:316,4
DA:317,4
DA:318,4
DA:319,4
DA:320,4
DA:321,4
DA:322,4
DA:323,4
DA:324,4
DA:325,4
DA:326,4
DA:327,4
DA:328,0
DA:329,0
DA:331,4
DA:332,4
DA:354,1
DA:355,1
DA:356,1
DA:357,1
DA:358,1
DA:359,1
DA:360,1
DA:361,1
DA:362,1
DA:363,1
DA:364,1
DA:365,1
DA:366,1
DA:372,1
DA:373,1
DA:374,1
DA:375,1
DA:376,1
DA:377,4
DA:378,4
DA:379,4
DA:380,1
DA:381,2
DA:382,2
DA:383,2
DA:384,2
DA:385,0
DA:386,2
DA:389,1
DA:390,1
DA:392,0
DA:394,0
DA:395,0
DA:396,0
DA:397,0
DA:398,0
DA:399,0
DA:403,0
DA:404,0
DA:405,0
DA:406,0
DA:407,0
DA:408,0
DA:409,0
DA:410,0
DA:411,0
DA:412,0
DA:413,0
DA:414,0
DA:415,0
BRF:0
BRH:0
LF:212
LH:128
end_of_record
SF:/home/ggtest/Work/Claude/MDViewer/.claude/worktrees/mdviewer-android/crates/mdviewer-core/src/document.rs
FN:271,_RNvNtCsiFtzeUpmjej_13mdviewer_core8document10emit_close
FN:66,_RNvNtCsiFtzeUpmjej_13mdviewer_core8document10syntax_set
FN:305,_RNvNtCsiFtzeUpmjej_13mdviewer_core8document11escape_html
FN:293,_RNvNtCsiFtzeUpmjej_13mdviewer_core8document11heading_tag
FN:197,_RNvNtCsiFtzeUpmjej_13mdviewer_core8document15emit_code_block
FN:84,_RNvNtCsiFtzeUpmjej_13mdviewer_core8document15render_markdown
FN:71,_RNvNtCsiFtzeUpmjej_13mdviewer_core8document5theme
FN:243,_RNvNtCsiFtzeUpmjej_13mdviewer_core8document9emit_open
FN:45,_RNvXNtCsiFtzeUpmjej_13mdviewer_core8documentNtB2_13RenderOptionsNtNtCsgEmfK2I1SDS_4core7default7Default7default
FN:213,_RNCNvNtCsiFtzeUpmjej_13mdviewer_core8document15emit_code_block0B5_
FN:78,_RNCNvNtCsiFtzeUpmjej_13mdviewer_core8document5theme0B5_
FN:213,_RNCNvNtCsekErrGBc1MS_13mdviewer_core8document15emit_code_block0B5_
FN:78,_RNCNvNtCsekErrGBc1MS_13mdviewer_core8document5theme0B5_
FN:271,_RNvNtCsekErrGBc1MS_13mdviewer_core8document10emit_close
FN:66,_RNvNtCsekErrGBc1MS_13mdviewer_core8document10syntax_set
FN:305,_RNvNtCsekErrGBc1MS_13mdviewer_core8document11escape_html
FN:293,_RNvNtCsekErrGBc1MS_13mdviewer_core8document11heading_tag
FN:197,_RNvNtCsekErrGBc1MS_13mdviewer_core8document15emit_code_block
FN:84,_RNvNtCsekErrGBc1MS_13mdviewer_core8document15render_markdown
FN:71,_RNvNtCsekErrGBc1MS_13mdviewer_core8document5theme
FN:243,_RNvNtCsekErrGBc1MS_13mdviewer_core8document9emit_open
FN:45,_RNvXNtCsekErrGBc1MS_13mdviewer_core8documentNtB2_13RenderOptionsNtNtCsgEmfK2I1SDS_4core7default7Default7default
FN:213,_RNCNvNtCslUjpkFttpVg_13mdviewer_core8document15emit_code_block0B5_
FN:78,_RNCNvNtCslUjpkFttpVg_13mdviewer_core8document5theme0B5_
FN:45,_RNvXNtCslUjpkFttpVg_13mdviewer_core8documentNtB2_13RenderOptionsNtNtCsgEmfK2I1SDS_4core7default7Default7default
FN:271,_RNvNtCslUjpkFttpVg_13mdviewer_core8document10emit_close
FN:66,_RNvNtCslUjpkFttpVg_13mdviewer_core8document10syntax_set
FN:305,_RNvNtCslUjpkFttpVg_13mdviewer_core8document11escape_html
FN:293,_RNvNtCslUjpkFttpVg_13mdviewer_core8document11heading_tag
FN:197,_RNvNtCslUjpkFttpVg_13mdviewer_core8document15emit_code_block
FN:84,_RNvNtCslUjpkFttpVg_13mdviewer_core8document15render_markdown
FN:71,_RNvNtCslUjpkFttpVg_13mdviewer_core8document5theme
FN:243,_RNvNtCslUjpkFttpVg_13mdviewer_core8document9emit_open
FNDA:0,_RNvNtCsiFtzeUpmjej_13mdviewer_core8document10emit_close
FNDA:0,_RNvNtCsiFtzeUpmjej_13mdviewer_core8document10syntax_set
FNDA:0,_RNvNtCsiFtzeUpmjej_13mdviewer_core8document11escape_html
FNDA:0,_RNvNtCsiFtzeUpmjej_13mdviewer_core8document11heading_tag
FNDA:0,_RNvNtCsiFtzeUpmjej_13mdviewer_core8document15emit_code_block
FNDA:0,_RNvNtCsiFtzeUpmjej_13mdviewer_core8document15render_markdown
FNDA:0,_RNvNtCsiFtzeUpmjej_13mdviewer_core8document5theme
FNDA:0,_RNvNtCsiFtzeUpmjej_13mdviewer_core8document9emit_open
FNDA:0,_RNvXNtCsiFtzeUpmjej_13mdviewer_core8documentNtB2_13RenderOptionsNtNtCsgEmfK2I1SDS_4core7default7Default7default
FNDA:0,_RNCNvNtCsiFtzeUpmjej_13mdviewer_core8document15emit_code_block0B5_
FNDA:0,_RNCNvNtCsiFtzeUpmjej_13mdviewer_core8document5theme0B5_
FNDA:0,_RNCNvNtCsekErrGBc1MS_13mdviewer_core8document15emit_code_block0B5_
FNDA:0,_RNCNvNtCsekErrGBc1MS_13mdviewer_core8document5theme0B5_
FNDA:11,_RNvNtCsekErrGBc1MS_13mdviewer_core8document10emit_close
FNDA:1,_RNvNtCsekErrGBc1MS_13mdviewer_core8document10syntax_set
FNDA:15,_RNvNtCsekErrGBc1MS_13mdviewer_core8document11escape_html
FNDA:4,_RNvNtCsekErrGBc1MS_13mdviewer_core8document11heading_tag
FNDA:1,_RNvNtCsekErrGBc1MS_13mdviewer_core8document15emit_code_block
FNDA:1,_RNvNtCsekErrGBc1MS_13mdviewer_core8document15render_markdown
FNDA:1,_RNvNtCsekErrGBc1MS_13mdviewer_core8document5theme
FNDA:11,_RNvNtCsekErrGBc1MS_13mdviewer_core8document9emit_open
FNDA:0,_RNvXNtCsekErrGBc1MS_13mdviewer_core8documentNtB2_13RenderOptionsNtNtCsgEmfK2I1SDS_4core7default7Default7default
FNDA:0,_RNCNvNtCslUjpkFttpVg_13mdviewer_core8document15emit_code_block0B5_
FNDA:0,_RNCNvNtCslUjpkFttpVg_13mdviewer_core8document5theme0B5_
FNDA:0,_RNvXNtCslUjpkFttpVg_13mdviewer_core8documentNtB2_13RenderOptionsNtNtCsgEmfK2I1SDS_4core7default7Default7default
FNDA:1,_RNvNtCslUjpkFttpVg_13mdviewer_core8document10emit_close
FNDA:0,_RNvNtCslUjpkFttpVg_13mdviewer_core8document10syntax_set
FNDA:1,_RNvNtCslUjpkFttpVg_13mdviewer_core8document11escape_html
FNDA:2,_RNvNtCslUjpkFttpVg_13mdviewer_core8document11heading_tag
FNDA:0,_RNvNtCslUjpkFttpVg_13mdviewer_core8document15emit_code_block
FNDA:1,_RNvNtCslUjpkFttpVg_13mdviewer_core8document15render_markdown
FNDA:0,_RNvNtCslUjpkFttpVg_13mdviewer_core8document5theme
FNDA:1,_RNvNtCslUjpkFttpVg_13mdviewer_core8document9emit_open
FNF:11
FNH:8
DA:45,0
DA:46,0
DA:47,0
DA:48,0
DA:49,0
DA:50,0
DA:66,1
DA:68,1
DA:69,1
DA:71,1
DA:73,1
DA:76,1
DA:77,1
DA:78,1
DA:79,1
DA:80,1
DA:84,2
DA:85,2
DA:86,2
DA:87,2
DA:88,2
DA:89,2
DA:91,2
DA:93,2
DA:94,2
DA:95,2
DA:96,2
DA:97,2
DA:101,2
DA:106,2
DA:108,41
DA:109,1
DA:110,1
DA:111,1
DA:112,1
DA:113,1
DA:114,1
DA:115,0
DA:116,0
DA:117,0
DA:118,0
DA:119,0
DA:120,1
DA:121,1
DA:122,1
DA:123,1
DA:124,1
DA:125,1
DA:126,0
DA:127,0
DA:128,0
DA:129,0
DA:130,0
DA:131,0
DA:132,0
DA:133,0
DA:134,1
DA:135,13
DA:136,13
DA:137,13
DA:138,13
DA:139,13
DA:140,13
DA:141,13
DA:142,13
DA:143,13
DA:144,13
DA:145,13
DA:146,1
DA:147,1
DA:148,1
DA:149,1
DA:150,1
DA:151,1
DA:152,1
DA:153,1
DA:154,1
DA:155,1
DA:156,0
DA:157,0
DA:158,0
DA:159,0
DA:160,0
DA:161,0
DA:162,0
DA:163,0
DA:165,0
DA:168,0
DA:170,12
DA:171,12
DA:172,0
DA:173,0
DA:174,0
DA:175,0
DA:176,0
DA:177,0
DA:178,0
DA:179,0
DA:180,0
DA:182,0
DA:183,0
DA:184,0
DA:185,0
DA:186,0
DA:190,0
DA:194,2
DA:195,2
DA:197,1
DA:198,1
DA:199,0
DA:200,0
DA:201,0
DA:202,0
DA:204,0
DA:205,0
DA:206,0
DA:207,0
DA:208,1
DA:209,1
DA:210,1
DA:211,1
DA:212,1
DA:213,1
DA:215,1
DA:216,1
DA:217,1
DA:219,1
DA:221,3
DA:222,3
DA:223,3
DA:224,3
DA:225,3
DA:226,3
DA:227,3
DA:228,0
DA:230,1
DA:231,1
DA:232,0
DA:233,0
DA:234,0
DA:235,0
DA:236,0
DA:237,0
DA:238,0
DA:239,0
DA:240,0
DA:241,1
DA:243,12
DA:244,1
DA:245,2
DA:246,3
DA:247,3
DA:248,3
DA:249,1
DA:250,0
DA:251,1
DA:252,2
DA:253,1
DA:254,1
DA:255,0
DA:256,1
DA:257,1
DA:258,1
DA:259,0
DA:260,0
DA:261,0
DA:262,0
DA:267,0
DA:269,12
DA:271,12
DA:272,12
DA:273,2
DA:274,3
DA:275,3
DA:276,3
DA:277,1
DA:278,0
DA:279,1
DA:280,2
DA:281,1
DA:282,1
DA:283,0
DA:284,1
DA:285,0
DA:286,0
DA:287,0
DA:288,0
DA:289,0
DA:291,12
DA:293,6
DA:295,6
DA:296,4
DA:297,2
DA:298,0
DA:299,0
DA:300,0
DA:301,0
DA:303,6
DA:305,16
DA:306,16
DA:307,152
DA:308,152
DA:309,0
DA:310,0
DA:311,0
DA:312,0
DA:313,0
DA:314,152
DA:317,16
DA:318,16
BRF:0
BRH:0
LF:212
LH:125
end_of_record
SF:/home/ggtest/Work/Claude/MDViewer/.claude/worktrees/mdviewer-android/crates/mdviewer-core/src/sidecar.rs
FN:126,_RNvNtCsiFtzeUpmjej_13mdviewer_core7sidecar17merge_with_policy
FN:68,_RNvNtCsiFtzeUpmjej_13mdviewer_core7sidecar18load_sidecar_bytes
FN:105,_RNvNtCsiFtzeUpmjej_13mdviewer_core7sidecar18save_sidecar_bytes
FN:126,_RNvNtCsekErrGBc1MS_13mdviewer_core7sidecar17merge_with_policy
FN:68,_RNvNtCsekErrGBc1MS_13mdviewer_core7sidecar18load_sidecar_bytes
FN:105,_RNvNtCsekErrGBc1MS_13mdviewer_core7sidecar18save_sidecar_bytes
FN:68,_RNvNtCslUjpkFttpVg_13mdviewer_core7sidecar18load_sidecar_bytes
FN:105,_RNvNtCslUjpkFttpVg_13mdviewer_core7sidecar18save_sidecar_bytes
FN:126,_RNvNtCslUjpkFttpVg_13mdviewer_core7sidecar17merge_with_policy
FNDA:0,_RNvNtCsiFtzeUpmjej_13mdviewer_core7sidecar17merge_with_policy
FNDA:0,_RNvNtCsiFtzeUpmjej_13mdviewer_core7sidecar18load_sidecar_bytes
FNDA:0,_RNvNtCsiFtzeUpmjej_13mdviewer_core7sidecar18save_sidecar_bytes
FNDA:3,_RNvNtCsekErrGBc1MS_13mdviewer_core7sidecar17merge_with_policy
FNDA:5,_RNvNtCsekErrGBc1MS_13mdviewer_core7sidecar18load_sidecar_bytes
FNDA:1,_RNvNtCsekErrGBc1MS_13mdviewer_core7sidecar18save_sidecar_bytes
FNDA:2,_RNvNtCslUjpkFttpVg_13mdviewer_core7sidecar18load_sidecar_bytes
FNDA:1,_RNvNtCslUjpkFttpVg_13mdviewer_core7sidecar18save_sidecar_bytes
FNDA:0,_RNvNtCslUjpkFttpVg_13mdviewer_core7sidecar17merge_with_policy
FNF:3
FNH:3
DA:68,7
DA:69,7
DA:70,2
DA:71,5
DA:74,5
DA:75,4
DA:77,2
DA:78,2
DA:79,2
DA:80,2
DA:81,2
DA:82,2
DA:83,2
DA:89,1
DA:90,1
DA:92,1
DA:94,7
DA:105,2
DA:106,2
DA:107,2
DA:108,2
DA:109,2
DA:110,2
DA:111,2
DA:112,2
DA:113,2
DA:126,3
DA:127,3
DA:128,3
DA:129,3
DA:130,3
DA:131,3
DA:132,3
DA:139,1
DA:141,2
DA:143,3
BRF:0
BRH:0
LF:36
LH:36
end_of_record
SF:/home/ggtest/Work/Claude/MDViewer/.claude/worktrees/mdviewer-android/crates/mdviewer-core/src/sidecar_path.rs
FN:34,_RNvNtCsiFtzeUpmjej_13mdviewer_core12sidecar_path16sidecar_filename
FN:34,_RNvNtCsekErrGBc1MS_13mdviewer_core12sidecar_path16sidecar_filename
FN:34,_RNvNtCslUjpkFttpVg_13mdviewer_core12sidecar_path16sidecar_filename
FN:72,_RNvNtNtCslUjpkFttpVg_13mdviewer_core12sidecar_path5testss_36multiple_name_tokens_all_substituted
FN:63,_RNvNtNtCslUjpkFttpVg_13mdviewer_core12sidecar_path5testss_45extensionless_filename_uses_full_name_as_stem
FN:56,_RNvNtNtCslUjpkFttpVg_13mdviewer_core12sidecar_path5testss_47dot_prefixed_filename_treats_whole_name_as_stem
FNDA:0,_RNvNtCsiFtzeUpmjej_13mdviewer_core12sidecar_path16sidecar_filename
FNDA:6,_RNvNtCsekErrGBc1MS_13mdviewer_core12sidecar_path16sidecar_filename
FNDA:4,_RNvNtCslUjpkFttpVg_13mdviewer_core12sidecar_path16sidecar_filename
FNDA:1,_RNvNtNtCslUjpkFttpVg_13mdviewer_core12sidecar_path5testss_36multiple_name_tokens_all_substituted
FNDA:1,_RNvNtNtCslUjpkFttpVg_13mdviewer_core12sidecar_path5testss_45extensionless_filename_uses_full_name_as_stem
FNDA:1,_RNvNtNtCslUjpkFttpVg_13mdviewer_core12sidecar_path5testss_47dot_prefixed_filename_treats_whole_name_as_stem
FNF:4
FNH:4
DA:34,10
DA:40,10
DA:41,8
DA:42,3
DA:44,10
DA:45,10
DA:56,1
DA:57,1
DA:58,1
DA:63,1
DA:64,1
DA:65,1
DA:72,1
DA:73,1
DA:74,1
DA:77,1
BRF:0
BRH:0
LF:16
LH:16
end_of_record
SF:/home/ggtest/Work/Claude/MDViewer/.claude/worktrees/mdviewer-android/crates/mdviewer-core/src/uniffi_bindgen_main.rs
FN:13,_RNvCsa5QoJY8f1H_14uniffi_bindgen4main
FN:13,_RNvCsk3VPEc9eObn_14uniffi_bindgen4main
FNDA:0,_RNvCsa5QoJY8f1H_14uniffi_bindgen4main
FNDA:0,_RNvCsk3VPEc9eObn_14uniffi_bindgen4main
FNF:1
FNH:0
DA:13,0
DA:14,0
DA:15,0
BRF:0
BRH:0
LF:3
LH:0
end_of_record
SF:/home/ggtest/Work/Claude/MDViewer/.claude/worktrees/mdviewer-android/crates/mdviewer-core/src/uniffi_bindings.rs
FN:224,_RNvMs3_NtCsiFtzeUpmjej_13mdviewer_core15uniffi_bindingsNtB5_19CommentsStoreHandle10from_store
FN:235,_RNvMs3_NtCsiFtzeUpmjej_13mdviewer_core15uniffi_bindingsNtB5_19CommentsStoreHandle7threads
FN:293,_RNvNtCsiFtzeUpmjej_13mdviewer_core15uniffi_bindings10u32_or_max
FN:252,_RNvNtCsiFtzeUpmjej_13mdviewer_core15uniffi_bindings15render_markdown
FN:281,_RNvNtCsiFtzeUpmjej_13mdviewer_core15uniffi_bindings16sidecar_filename
FN:261,_RNvNtCsiFtzeUpmjej_13mdviewer_core15uniffi_bindings18load_sidecar_bytes
FN:267,_RNvNtCsiFtzeUpmjej_13mdviewer_core15uniffi_bindings18save_sidecar_bytes
FN:65,_RNvXNtCsiFtzeUpmjej_13mdviewer_core15uniffi_bindingsNtB2_9CoreErrorINtNtCsgEmfK2I1SDS_4core7convert4FromNtCsiqrUEAaTIn_6anyhow5ErrorE4from
FN:135,_RNvXs0_NtCsiFtzeUpmjej_13mdviewer_core15uniffi_bindingsNtB5_6AnchorINtNtCsgEmfK2I1SDS_4core7convert4FromNtNtB7_6anchor6AnchorE4from
FN:162,_RNvXs1_NtCsiFtzeUpmjej_13mdviewer_core15uniffi_bindingsNtB5_7CommentINtNtCsgEmfK2I1SDS_4core7convert4FromNtNtB7_8comments7CommentE4from
FN:194,_RNvXs2_NtCsiFtzeUpmjej_13mdviewer_core15uniffi_bindingsNtB5_6ThreadINtNtCsgEmfK2I1SDS_4core7convert4FromNtNtB7_8comments6ThreadE4from
FN:102,_RNvXs_NtCsiFtzeUpmjej_13mdviewer_core15uniffi_bindingsNtB4_12RenderResultINtNtCsgEmfK2I1SDS_4core7convert4FromNtNtB6_8document12RenderResultE4from
FN:198,_RNCNvXs2_NtCsiFtzeUpmjej_13mdviewer_core15uniffi_bindingsNtB7_6ThreadINtNtCsgEmfK2I1SDS_4core7convert4FromNtNtB9_8comments6ThreadE4from0B9_
FN:108,_RNCNvXs_NtCsiFtzeUpmjej_13mdviewer_core15uniffi_bindingsNtB6_12RenderResultINtNtCsgEmfK2I1SDS_4core7convert4FromNtNtB8_8document12RenderResultE4from0B8_
FN:198,_RNCNvXs2_NtCsekErrGBc1MS_13mdviewer_core15uniffi_bindingsNtB7_6ThreadINtNtCsgEmfK2I1SDS_4core7convert4FromNtNtB9_8comments6ThreadE4from0B9_
FN:108,_RNCNvXs_NtCsekErrGBc1MS_13mdviewer_core15uniffi_bindingsNtB6_12RenderResultINtNtCsgEmfK2I1SDS_4core7convert4FromNtNtB8_8document12RenderResultE4from0B8_
FN:224,_RNvMs3_NtCsekErrGBc1MS_13mdviewer_core15uniffi_bindingsNtB5_19CommentsStoreHandle10from_store
FN:235,_RNvMs3_NtCsekErrGBc1MS_13mdviewer_core15uniffi_bindingsNtB5_19CommentsStoreHandle7threads
FN:293,_RNvNtCsekErrGBc1MS_13mdviewer_core15uniffi_bindings10u32_or_max
FN:252,_RNvNtCsekErrGBc1MS_13mdviewer_core15uniffi_bindings15render_markdown
FN:281,_RNvNtCsekErrGBc1MS_13mdviewer_core15uniffi_bindings16sidecar_filename
FN:261,_RNvNtCsekErrGBc1MS_13mdviewer_core15uniffi_bindings18load_sidecar_bytes
FN:267,_RNvNtCsekErrGBc1MS_13mdviewer_core15uniffi_bindings18save_sidecar_bytes
FN:65,_RNvXNtCsekErrGBc1MS_13mdviewer_core15uniffi_bindingsNtB2_9CoreErrorINtNtCsgEmfK2I1SDS_4core7convert4FromNtCsiqrUEAaTIn_6anyhow5ErrorE4from
FN:135,_RNvXs0_NtCsekErrGBc1MS_13mdviewer_core15uniffi_bindingsNtB5_6AnchorINtNtCsgEmfK2I1SDS_4core7convert4FromNtNtB7_6anchor6AnchorE4from
FN:162,_RNvXs1_NtCsekErrGBc1MS_13mdviewer_core15uniffi_bindingsNtB5_7CommentINtNtCsgEmfK2I1SDS_4core7convert4FromNtNtB7_8comments7CommentE4from
FN:194,_RNvXs2_NtCsekErrGBc1MS_13mdviewer_core15uniffi_bindingsNtB5_6ThreadINtNtCsgEmfK2I1SDS_4core7convert4FromNtNtB7_8comments6ThreadE4from
FN:102,_RNvXs_NtCsekErrGBc1MS_13mdviewer_core15uniffi_bindingsNtB4_12RenderResultINtNtCsgEmfK2I1SDS_4core7convert4FromNtNtB6_8document12RenderResultE4from
FN:396,_RNvNtNtCslUjpkFttpVg_13mdviewer_core15uniffi_bindings5testss_32u32_or_max_saturates_on_overflow
FN:306,_RNvNtNtCslUjpkFttpVg_13mdviewer_core15uniffi_bindings5testss_36anchor_into_wrapper_preserves_fields
FN:449,_RNvNtNtCslUjpkFttpVg_13mdviewer_core15uniffi_bindings5testss_40handle_round_trip_through_load_save_load
FN:462,_RNvNtNtCslUjpkFttpVg_13mdviewer_core15uniffi_bindings5testss_41render_markdown_wrapper_delegates_to_core
FN:411,_RNvNtNtCslUjpkFttpVg_13mdviewer_core15uniffi_bindings5testss_42anyhow_error_funnels_into_internal_variant
FN:422,_RNvNtNtCslUjpkFttpVg_13mdviewer_core15uniffi_bindings5testss_42render_result_projection_assigns_dom_index
FN:478,_RNvNtNtCslUjpkFttpVg_13mdviewer_core15uniffi_bindings5testss_42sidecar_filename_wrapper_substitutes_token
FN:326,_RNvNtNtCslUjpkFttpVg_13mdviewer_core15uniffi_bindings5testss_44thread_with_no_comments_has_empty_created_at
FN:350,_RNvNtNtCslUjpkFttpVg_13mdviewer_core15uniffi_bindings5testss_46thread_created_at_uses_first_comment_timestamp
FN:224,_RNvMs3_NtCslUjpkFttpVg_13mdviewer_core15uniffi_bindingsNtB5_19CommentsStoreHandle10from_store
FN:235,_RNvMs3_NtCslUjpkFttpVg_13mdviewer_core15uniffi_bindingsNtB5_19CommentsStoreHandle7threads
FN:293,_RNvNtCslUjpkFttpVg_13mdviewer_core15uniffi_bindings10u32_or_max
FN:252,_RNvNtCslUjpkFttpVg_13mdviewer_core15uniffi_bindings15render_markdown
FN:281,_RNvNtCslUjpkFttpVg_13mdviewer_core15uniffi_bindings16sidecar_filename
FN:261,_RNvNtCslUjpkFttpVg_13mdviewer_core15uniffi_bindings18load_sidecar_bytes
FN:267,_RNvNtCslUjpkFttpVg_13mdviewer_core15uniffi_bindings18save_sidecar_bytes
FN:65,_RNvXNtCslUjpkFttpVg_13mdviewer_core15uniffi_bindingsNtB2_9CoreErrorINtNtCsgEmfK2I1SDS_4core7convert4FromNtCsiqrUEAaTIn_6anyhow5ErrorE4from
FN:135,_RNvXs0_NtCslUjpkFttpVg_13mdviewer_core15uniffi_bindingsNtB5_6AnchorINtNtCsgEmfK2I1SDS_4core7convert4FromNtNtB7_6anchor6AnchorE4from
FN:162,_RNvXs1_NtCslUjpkFttpVg_13mdviewer_core15uniffi_bindingsNtB5_7CommentINtNtCsgEmfK2I1SDS_4core7convert4FromNtNtB7_8comments7CommentE4from
FN:194,_RNvXs2_NtCslUjpkFttpVg_13mdviewer_core15uniffi_bindingsNtB5_6ThreadINtNtCsgEmfK2I1SDS_4core7convert4FromNtNtB7_8comments6ThreadE4from
FN:102,_RNvXs_NtCslUjpkFttpVg_13mdviewer_core15uniffi_bindingsNtB4_12RenderResultINtNtCsgEmfK2I1SDS_4core7convert4FromNtNtB6_8document12RenderResultE4from
FN:198,_RNCNvXs2_NtCslUjpkFttpVg_13mdviewer_core15uniffi_bindingsNtB7_6ThreadINtNtCsgEmfK2I1SDS_4core7convert4FromNtNtB9_8comments6ThreadE4from0B9_
FN:108,_RNCNvXs_NtCslUjpkFttpVg_13mdviewer_core15uniffi_bindingsNtB6_12RenderResultINtNtCsgEmfK2I1SDS_4core7convert4FromNtNtB8_8document12RenderResultE4from0B8_
FNDA:0,_RNvMs3_NtCsiFtzeUpmjej_13mdviewer_core15uniffi_bindingsNtB5_19CommentsStoreHandle10from_store
FNDA:0,_RNvMs3_NtCsiFtzeUpmjej_13mdviewer_core15uniffi_bindingsNtB5_19CommentsStoreHandle7threads
FNDA:0,_RNvNtCsiFtzeUpmjej_13mdviewer_core15uniffi_bindings10u32_or_max
FNDA:0,_RNvNtCsiFtzeUpmjej_13mdviewer_core15uniffi_bindings15render_markdown
FNDA:0,_RNvNtCsiFtzeUpmjej_13mdviewer_core15uniffi_bindings16sidecar_filename
FNDA:0,_RNvNtCsiFtzeUpmjej_13mdviewer_core15uniffi_bindings18load_sidecar_bytes
FNDA:0,_RNvNtCsiFtzeUpmjej_13mdviewer_core15uniffi_bindings18save_sidecar_bytes
FNDA:0,_RNvXNtCsiFtzeUpmjej_13mdviewer_core15uniffi_bindingsNtB2_9CoreErrorINtNtCsgEmfK2I1SDS_4core7convert4FromNtCsiqrUEAaTIn_6anyhow5ErrorE4from
FNDA:0,_RNvXs0_NtCsiFtzeUpmjej_13mdviewer_core15uniffi_bindingsNtB5_6AnchorINtNtCsgEmfK2I1SDS_4core7convert4FromNtNtB7_6anchor6AnchorE4from
FNDA:0,_RNvXs1_NtCsiFtzeUpmjej_13mdviewer_core15uniffi_bindingsNtB5_7CommentINtNtCsgEmfK2I1SDS_4core7convert4FromNtNtB7_8comments7CommentE4from
FNDA:0,_RNvXs2_NtCsiFtzeUpmjej_13mdviewer_core15uniffi_bindingsNtB5_6ThreadINtNtCsgEmfK2I1SDS_4core7convert4FromNtNtB7_8comments6ThreadE4from
FNDA:0,_RNvXs_NtCsiFtzeUpmjej_13mdviewer_core15uniffi_bindingsNtB4_12RenderResultINtNtCsgEmfK2I1SDS_4core7convert4FromNtNtB6_8document12RenderResultE4from
FNDA:0,_RNCNvXs2_NtCsiFtzeUpmjej_13mdviewer_core15uniffi_bindingsNtB7_6ThreadINtNtCsgEmfK2I1SDS_4core7convert4FromNtNtB9_8comments6ThreadE4from0B9_
FNDA:0,_RNCNvXs_NtCsiFtzeUpmjej_13mdviewer_core15uniffi_bindingsNtB6_12RenderResultINtNtCsgEmfK2I1SDS_4core7convert4FromNtNtB8_8document12RenderResultE4from0B8_
FNDA:0,_RNCNvXs2_NtCsekErrGBc1MS_13mdviewer_core15uniffi_bindingsNtB7_6ThreadINtNtCsgEmfK2I1SDS_4core7convert4FromNtNtB9_8comments6ThreadE4from0B9_
FNDA:0,_RNCNvXs_NtCsekErrGBc1MS_13mdviewer_core15uniffi_bindingsNtB6_12RenderResultINtNtCsgEmfK2I1SDS_4core7convert4FromNtNtB8_8document12RenderResultE4from0B8_
FNDA:0,_RNvMs3_NtCsekErrGBc1MS_13mdviewer_core15uniffi_bindingsNtB5_19CommentsStoreHandle10from_store
FNDA:0,_RNvMs3_NtCsekErrGBc1MS_13mdviewer_core15uniffi_bindingsNtB5_19CommentsStoreHandle7threads
FNDA:0,_RNvNtCsekErrGBc1MS_13mdviewer_core15uniffi_bindings10u32_or_max
FNDA:0,_RNvNtCsekErrGBc1MS_13mdviewer_core15uniffi_bindings15render_markdown
FNDA:0,_RNvNtCsekErrGBc1MS_13mdviewer_core15uniffi_bindings16sidecar_filename
FNDA:0,_RNvNtCsekErrGBc1MS_13mdviewer_core15uniffi_bindings18load_sidecar_bytes
FNDA:0,_RNvNtCsekErrGBc1MS_13mdviewer_core15uniffi_bindings18save_sidecar_bytes
FNDA:0,_RNvXNtCsekErrGBc1MS_13mdviewer_core15uniffi_bindingsNtB2_9CoreErrorINtNtCsgEmfK2I1SDS_4core7convert4FromNtCsiqrUEAaTIn_6anyhow5ErrorE4from
FNDA:0,_RNvXs0_NtCsekErrGBc1MS_13mdviewer_core15uniffi_bindingsNtB5_6AnchorINtNtCsgEmfK2I1SDS_4core7convert4FromNtNtB7_6anchor6AnchorE4from
FNDA:0,_RNvXs1_NtCsekErrGBc1MS_13mdviewer_core15uniffi_bindingsNtB5_7CommentINtNtCsgEmfK2I1SDS_4core7convert4FromNtNtB7_8comments7CommentE4from
FNDA:0,_RNvXs2_NtCsekErrGBc1MS_13mdviewer_core15uniffi_bindingsNtB5_6ThreadINtNtCsgEmfK2I1SDS_4core7convert4FromNtNtB7_8comments6ThreadE4from
FNDA:0,_RNvXs_NtCsekErrGBc1MS_13mdviewer_core15uniffi_bindingsNtB4_12RenderResultINtNtCsgEmfK2I1SDS_4core7convert4FromNtNtB6_8document12RenderResultE4from
FNDA:1,_RNvNtNtCslUjpkFttpVg_13mdviewer_core15uniffi_bindings5testss_32u32_or_max_saturates_on_overflow
FNDA:1,_RNvNtNtCslUjpkFttpVg_13mdviewer_core15uniffi_bindings5testss_36anchor_into_wrapper_preserves_fields
FNDA:1,_RNvNtNtCslUjpkFttpVg_13mdviewer_core15uniffi_bindings5testss_40handle_round_trip_through_load_save_load
FNDA:1,_RNvNtNtCslUjpkFttpVg_13mdviewer_core15uniffi_bindings5testss_41render_markdown_wrapper_delegates_to_core
FNDA:1,_RNvNtNtCslUjpkFttpVg_13mdviewer_core15uniffi_bindings5testss_42anyhow_error_funnels_into_internal_variant
FNDA:1,_RNvNtNtCslUjpkFttpVg_13mdviewer_core15uniffi_bindings5testss_42render_result_projection_assigns_dom_index
FNDA:1,_RNvNtNtCslUjpkFttpVg_13mdviewer_core15uniffi_bindings5testss_42sidecar_filename_wrapper_substitutes_token
FNDA:1,_RNvNtNtCslUjpkFttpVg_13mdviewer_core15uniffi_bindings5testss_44thread_with_no_comments_has_empty_created_at
FNDA:1,_RNvNtNtCslUjpkFttpVg_13mdviewer_core15uniffi_bindings5testss_46thread_created_at_uses_first_comment_timestamp
FNDA:2,_RNvMs3_NtCslUjpkFttpVg_13mdviewer_core15uniffi_bindingsNtB5_19CommentsStoreHandle10from_store
FNDA:3,_RNvMs3_NtCslUjpkFttpVg_13mdviewer_core15uniffi_bindingsNtB5_19CommentsStoreHandle7threads
FNDA:22,_RNvNtCslUjpkFttpVg_13mdviewer_core15uniffi_bindings10u32_or_max
FNDA:1,_RNvNtCslUjpkFttpVg_13mdviewer_core15uniffi_bindings15render_markdown
FNDA:1,_RNvNtCslUjpkFttpVg_13mdviewer_core15uniffi_bindings16sidecar_filename
FNDA:2,_RNvNtCslUjpkFttpVg_13mdviewer_core15uniffi_bindings18load_sidecar_bytes
FNDA:1,_RNvNtCslUjpkFttpVg_13mdviewer_core15uniffi_bindings18save_sidecar_bytes
FNDA:1,_RNvXNtCslUjpkFttpVg_13mdviewer_core15uniffi_bindingsNtB2_9CoreErrorINtNtCsgEmfK2I1SDS_4core7convert4FromNtCsiqrUEAaTIn_6anyhow5ErrorE4from
FNDA:3,_RNvXs0_NtCslUjpkFttpVg_13mdviewer_core15uniffi_bindingsNtB5_6AnchorINtNtCsgEmfK2I1SDS_4core7convert4FromNtNtB7_6anchor6AnchorE4from
FNDA:2,_RNvXs1_NtCslUjpkFttpVg_13mdviewer_core15uniffi_bindingsNtB5_7CommentINtNtCsgEmfK2I1SDS_4core7convert4FromNtNtB7_8comments7CommentE4from
FNDA:2,_RNvXs2_NtCslUjpkFttpVg_13mdviewer_core15uniffi_bindingsNtB5_6ThreadINtNtCsgEmfK2I1SDS_4core7convert4FromNtNtB7_8comments6ThreadE4from
FNDA:3,_RNvXs_NtCslUjpkFttpVg_13mdviewer_core15uniffi_bindingsNtB4_12RenderResultINtNtCsgEmfK2I1SDS_4core7convert4FromNtNtB6_8document12RenderResultE4from
FNDA:1,_RNCNvXs2_NtCslUjpkFttpVg_13mdviewer_core15uniffi_bindingsNtB7_6ThreadINtNtCsgEmfK2I1SDS_4core7convert4FromNtNtB9_8comments6ThreadE4from0B9_
FNDA:4,_RNCNvXs_NtCslUjpkFttpVg_13mdviewer_core15uniffi_bindingsNtB6_12RenderResultINtNtCsgEmfK2I1SDS_4core7convert4FromNtNtB8_8document12RenderResultE4from0B8_
FNF:23
FNH:23
DA:65,1
DA:70,1
DA:71,1
DA:102,3
DA:103,3
DA:104,3
DA:105,3
DA:106,3
DA:107,3
DA:108,4
DA:109,4
DA:110,4
DA:111,4
DA:112,3
DA:113,3
DA:114,3
DA:115,3
DA:116,3
DA:117,3
DA:135,3
DA:136,3
DA:137,3
DA:138,3
DA:139,3
DA:140,3
DA:141,3
DA:142,3
DA:143,3
DA:162,2
DA:163,2
DA:164,2
DA:165,2
DA:166,2
DA:167,2
DA:168,2
DA:169,2
DA:170,2
DA:171,2
DA:172,2
DA:173,2
DA:174,2
DA:175,2
DA:176,2
DA:194,2
DA:195,2
DA:196,2
DA:197,2
DA:198,2
DA:199,2
DA:200,2
DA:201,2
DA:202,2
DA:203,2
DA:204,2
DA:205,2
DA:206,2
DA:207,2
DA:224,2
DA:225,2
DA:226,2
DA:227,2
DA:228,2
DA:235,3
DA:236,3
DA:237,3
DA:238,3
DA:239,3
DA:240,3
DA:241,3
DA:242,3
DA:243,3
DA:244,3
DA:252,1
DA:253,1
DA:254,1
DA:255,1
DA:256,1
DA:257,1
DA:258,1
DA:261,2
DA:262,2
DA:263,2
DA:264,2
DA:267,1
DA:268,1
DA:269,1
DA:270,1
DA:271,1
DA:272,1
DA:273,1
DA:274,1
DA:275,1
DA:281,1
DA:282,1
DA:283,1
DA:293,22
DA:294,22
DA:295,22
DA:306,1
DA:307,1
DA:308,1
DA:309,1
DA:310,1
DA:311,1
DA:312,1
DA:313,1
DA:314,1
DA:315,1
DA:316,1
DA:317,1
DA:318,1
DA:319,1
DA:320,1
DA:326,1
DA:327,1
DA:328,1
DA:329,1
DA:330,1
DA:331,1
DA:332,1
DA:333,1
DA:334,1
DA:335,1
DA:336,1
DA:337,1
DA:338,1
DA:339,1
DA:340,1
DA:341,1
DA:342,1
DA:343,1
DA:344,1
DA:350,1
DA:351,1
DA:352,1
DA:353,1
DA:354,1
DA:355,1
DA:356,1
DA:357,1
DA:358,1
DA:359,1
DA:360,1
DA:361,1
DA:362,1
DA:363,1
DA:364,1
DA:365,1
DA:366,1
DA:367,1
DA:368,1
DA:369,1
DA:370,1
DA:371,1
DA:372,1
DA:373,1
DA:374,1
DA:375,1
DA:376,1
DA:377,1
DA:378,1
DA:379,1
DA:380,1
DA:381,1
DA:382,1
DA:383,1
DA:384,1
DA:385,1
DA:386,1
DA:387,1
DA:388,1
DA:389,1
DA:396,1
DA:397,1
DA:398,1
DA:399,1
DA:402,1
DA:403,1
DA:404,0
DA:405,1
DA:411,1
DA:412,1
DA:413,1
DA:414,1
DA:415,0
DA:417,1
DA:422,1
DA:423,1
DA:424,1
DA:425,1
DA:426,1
DA:427,1
DA:428,1
DA:429,1
DA:430,3
DA:431,3
DA:433,1
DA:434,1
DA:436,1
DA:437,1
DA:438,1
DA:439,1
DA:440,1
DA:441,1
DA:442,1
DA:449,1
DA:450,1
DA:451,1
DA:452,1
DA:453,1
DA:454,1
DA:455,1
DA:462,1
DA:463,1
DA:464,1
DA:465,1
DA:466,1
DA:467,1
DA:468,1
DA:470,1
DA:471,1
DA:472,1
DA:478,1
DA:479,1
DA:480,1
DA:483,1
BRF:0
BRH:0
LF:227
LH:225
end_of_record